ARM Linker, 5.03 [Build 76] [MDK-ARM Standard]

==============================================================================

Section Cross References

    project_main.o(.text) refers to llwu.o(.text) for llwu_configure
    project_main.o(.text) refers to audio.o(.text) for AudioEnable
    project_main.o(.text) refers to io_tasks.o(.text) for VoiceCallTask_GetPhase
    project_main.o(.text) refers to power_management.o(.text) for SetLowPowerModes
    project_main.o(.text) refers to usbhw.o(.text) for USB_Init
    project_main.o(.text) refers to dbg_cfg_app.o(.text) for TPM0_Init
    project_main.o(.text) refers to tick.o(.text) for InitTimeout
    project_main.o(.text) refers to tracker.o(.text) for TrackerTask
    project_main.o(.text) refers to gsm_gprs_tasks.o(.text) for GprsTask_GetPhase
    project_main.o(.text) refers to sos_tasks.o(.text) for SosTask_IsAlarmActivated
    project_main.o(.text) refers to gps_task.o(.text) for GpsTask_GetPhase
    project_main.o(.text) refers to uidiv.o(.text) for __aeabi_uidivmod
    project_main.o(.text) refers to modem.o(.text) for MODEM_SendCommand
    project_main.o(.text) refers to tick.o(.data) for ringingFlag
    project_main.o(.text) refers to project_main.o(.data) for ringingCount
    project_main.o(.text) refers to io_tasks.o(.data) for ringing
    project_main.o(.text) refers to llwu.o(.data) for llwuSource
    project_main.o(.text) refers to sysinit.o(.data) for mcg_clk_hz
    project_main.o(.text) refers to db.o(.bss) for pwrStatus
    project_main.o(.text) refers to pedometer_task.o(.data) for Pedometer
    project_main.o(.text) refers to project_main.o(.bss) for tSleepTimeout
    project_main.o(.text) refers to at_command_parser.o(.data) for smsNewMessageFlag
    project_main.o(.text) refers to modem.o(.data) for modemError
    project_main.o(.text) refers to dbg_cfg_app.o(.data) for logEnable
    project_main.o(.text) refers to idiv.o(.text) for __aeabi_idivmod
    project_main.o(.text) refers to at_command_parser.o(.text) for SMS_Manage
    project_main.o(.text) refers to system_config.o(.text) for CFG_Load
    project_main.o(.text) refers to start.o(.text) for start
    project_main.o(.text) refers to gps.o(.text) for GPSInit
    project_main.o(.text) refers to pedometer_task.o(.text) for PedometerTaskInit
    project_main.o(.text) refers to uart.o(.text) for uart0_init
    project_main.o(.text) refers to sst25.o(.text) for SST25_Init
    project_main.o(.text) refers to db.o(.text) for DB_FlashMemInit
    project_main.o(.text) refers to gps_task.o(.data) for flagSaveTime
    project_main.o(.text) refers to sys_time.o(.data) for sysTime
    project_main.o(.text) refers to project_common.o(.bss) for mainBuf
    project_main.o(.text) refers to tick.o(.bss) for key
    project_main.o(.text) refers to gsm_gprs_tasks.o(.data) for sendFirstPacket
    power_management.o(.text) refers to mcg.o(.text) for atc
    power_management.o(.text) refers to smc.o(.text) for exit_vlpr
    power_management.o(.text) refers to power_management.o(i.__ARM_common_switch8) for __ARM_common_switch8
    power_management.o(.text) refers to idiv.o(.text) for __aeabi_idivmod
    power_management.o(.text) refers to uidiv.o(.text) for __aeabi_uidivmod
    power_management.o(.text) refers to sysinit.o(.data) for mcg_clk_hz
    power_management.o(.text) refers to power_management.o(.data) for lpwMode
    power_management.o(.text) refers to flash_ftfa.o(.text) for Flash_Init
    power_management.o(.text) refers to uart.o(.text) for uart0_init
    power_management.o(.text) refers to tick.o(.text) for TICK_Init
    power_management.o(.text) refers to dbg_cfg_app.o(.text) for TPM0_Init
    power_management.o(.text) refers to sst25.o(.text) for SST25_Init
    power_management.o(.text) refers to audio.o(.text) for AUDIO_Init
    power_management.o(.text) refers to usbhw.o(.text) for USB_Init
    gsm_gprs_tasks.o(.text) refers to upload_config_task.o(.text) for UploadConfigTask_GetPhase
    gsm_gprs_tasks.o(.text) refers to tick.o(.text) for InitTimeout
    gsm_gprs_tasks.o(.text) refers to modem.o(.text) for ModemCmd_Task
    gsm_gprs_tasks.o(.text) refers to io_tasks.o(.text) for IoTask_IsModemBusy
    gsm_gprs_tasks.o(.text) refers to sos_tasks.o(.text) for SosTask_GetPhase
    gsm_gprs_tasks.o(.text) refers to power_management.o(i.__ARM_common_switch8) for __ARM_common_switch8
    gsm_gprs_tasks.o(.text) refers to uart.o(.text) for uart_putchar
    gsm_gprs_tasks.o(.text) refers to gsm_gprs_tasks.o(.data) for gsm_TaskPhase
    gsm_gprs_tasks.o(.text) refers to gsm_gprs_tasks.o(.bss) for tWaitSendDataTimeOut
    gsm_gprs_tasks.o(.text) refers to at_command_parser.o(.data) for gprsDeactivationFlag
    gsm_gprs_tasks.o(.text) refers to modem.o(.data) for modemError
    gsm_gprs_tasks.o(.text) refers to tracker.o(.text) for CheckTrackerMsgIsReady
    gsm_gprs_tasks.o(.text) refers to gps.o(.bss) for gpsInfo
    gsm_gprs_tasks.o(.text) refers to tracker.o(.data) for trackerEnable
    gsm_gprs_tasks.o(.text) refers to system_config.o(.bss) for sysCfg
    gsm_gprs_tasks.o(.text) refers to at_command_parser.o(.bss) for DNS_serverIp
    gsm_gprs_tasks.o(.text) refers to at_command_parser.o(.text) for GPRS_CmdRecvData
    gsm_gprs_tasks.o(.text) refers to gprs_cmd_ctrl.o(.text) for IsGprsDataPacket
    gsm_gprs_tasks.o(.text) refers to memcpya.o(.text) for __aeabi_memcpy
    gsm_gprs_tasks.o(.text) refers to project_common.o(.bss) for mainBuf
    gsm_gprs_tasks.o(.text) refers to project_main.o(.data) for flagPwrOn
    gsm_gprs_tasks.o(.text) refers to tick.o(.data) for ringingDetectFlag
    gsm_gprs_tasks.o(.text) refers to power_management.o(.text) for SetLowPowerModes
    gsm_gprs_tasks.o(.text) refers to strlen.o(.text) for strlen
    gsm_gprs_tasks.o(.text) refers to strcmp.o(.text) for strcmp
    gsm_gprs_tasks.o(.text) refers to strcpy.o(.text) for strcpy
    gsm_gprs_tasks.o(.text) refers to system_config.o(.text) for CFG_Save
    gsm_gprs_tasks.o(.text) refers to system_config.o(.data) for sysUploadConfig
    gsm_gprs_tasks.o(.text) refers to power_management.o(.data) for lpwMode
    gsm_gprs_tasks.o(.text) refers to sysinit.o(.data) for periph_clk_khz
    gsm_gprs_tasks.o(.text) refers to modem.o(.bss) for modemId
    sos_tasks.o(.text) refers to tick.o(.text) for InitTimeout
    sos_tasks.o(.text) refers to audio.o(.text) for AudioPlayFile
    sos_tasks.o(.text) refers to io_tasks.o(.text) for VoiceCallTask_ClearCallAction
    sos_tasks.o(.text) refers to gprs_cmd_ctrl.o(.text) for DSOS_Add
    sos_tasks.o(.text) refers to gsm_gprs_tasks.o(.text) for GprsTask_Stop
    sos_tasks.o(.text) refers to strlen.o(.text) for strlen
    sos_tasks.o(.text) refers to sos_tasks.o(.data) for sosPhase
    sos_tasks.o(.text) refers to tick.o(.data) for loneWorkerAlarmActiveFlag
    sos_tasks.o(.text) refers to sos_tasks.o(.bss) for tPromptStandByTimeOut
    sos_tasks.o(.text) refers to system_config.o(.bss) for sysCfg
    sos_tasks.o(.text) refers to io_tasks.o(.bss) for incomingCallPhoneNo
    sos_tasks.o(.text) refers to gsm_gprs_tasks.o(.bss) for sosData
    sos_tasks.o(.text) refers to gsm_gprs_tasks.o(.data) for sosDataLength
    sos_tasks.o(.text) refers to gps_task.o(.text) for GpsTask_EnableGps
    sos_tasks.o(.text) refers to uart.o(.text) for uart_putchar
    sos_tasks.o(.text) refers to power_management.o(i.__ARM_common_switch8) for __ARM_common_switch8
    sos_tasks.o(.text) refers to memcpya.o(.text) for __aeabi_memcpy
    sos_tasks.o(.text) refers to printf8.o(i.__0sprintf$8) for __2sprintf
    io_tasks.o(.text) refers to audio.o(.text) for AudioPlayFile
    io_tasks.o(.text) refers to sos_tasks.o(.text) for SosTask_GetPhase
    io_tasks.o(.text) refers to tick.o(.text) for InitTimeout
    io_tasks.o(.text) refers to gsm_gprs_tasks.o(.text) for GprsTask_Stop
    io_tasks.o(.text) refers to usbhw.o(.text) for USB_Init
    io_tasks.o(.text) refers to gps_task.o(.text) for GpsTask_EnableGps
    io_tasks.o(.text) refers to modem.o(.data) for batteryPercent
    io_tasks.o(.text) refers to io_tasks.o(.data) for voiceCall_TaskPhase
    io_tasks.o(.text) refers to at_command_parser.o(.data) for extendedErrorCode
    io_tasks.o(.text) refers to io_tasks.o(.bss) for tWaitCallActionTimeOut
    io_tasks.o(.text) refers to db.o(.bss) for pwrStatus
    io_tasks.o(.text) refers to tick.o(.data) for powerOnLedFlash
    io_tasks.o(.text) refers to project_main.o(.data) for flagPwrOn
    io_tasks.o(.text) refers to sos_tasks.o(.data) for sosAction
    io_tasks.o(.text) refers to system_config.o(.bss) for sysCfg
    io_tasks.o(.text) refers to dtmf_app.o(.text) for DTMF_Init
    io_tasks.o(.text) refers to ringbuf.o(.text) for RINGBUF_Get
    io_tasks.o(.text) refers to power_management.o(i.__ARM_common_switch8) for __ARM_common_switch8
    io_tasks.o(.text) refers to strcpy.o(.text) for strcpy
    io_tasks.o(.text) refers to printf8.o(i.__0sprintf$8) for __2sprintf
    io_tasks.o(.text) refers to memseta.o(.text) for __aeabi_memclr
    io_tasks.o(.text) refers to uart.o(.text) for uart_putchar
    io_tasks.o(.text) refers to gps.o(.bss) for gpsInfo
    io_tasks.o(.text) refers to gps_task.o(.data) for gpsPromptFlag
    io_tasks.o(.text) refers to dtmf_app.o(.bss) for DTMF_ringBuff
    io_tasks.o(.text) refers to io_tasks.o(.constdata) for .constdata
    io_tasks.o(.text) refers to sos_tasks.o(.bss) for sosStartLocation
    io_tasks.o(.text) refers to modem.o(.text) for ModemCmdTask_IsIdle
    io_tasks.o(.text) refers to memcpya.o(.text) for __aeabi_memcpy
    io_tasks.o(.text) refers to strlen.o(.text) for strlen
    upload_config_task.o(.text) refers to tick.o(.text) for InitTimeout
    upload_config_task.o(.text) refers to sos_tasks.o(.text) for SosTask_GetPhase
    upload_config_task.o(.text) refers to gsm_gprs_tasks.o(.text) for GprsTask_Stop
    upload_config_task.o(.text) refers to io_tasks.o(.text) for IoTask_IsModemBusy
    upload_config_task.o(.text) refers to modem.o(.text) for MODEM_SendCommand
    upload_config_task.o(.text) refers to uart.o(.text) for uart_putchar
    upload_config_task.o(.text) refers to upload_config_task.o(.data) for uploadRetry
    upload_config_task.o(.text) refers to tick.o(.data) for rtcTimeSec
    upload_config_task.o(.text) refers to system_config.o(.bss) for sysCfg
    upload_config_task.o(.text) refers to upload_config_task.o(.bss) for tUploadConfigTimeout
    upload_config_task.o(.text) refers to system_config.o(.data) for sysUploadConfig
    upload_config_task.o(.text) refers to gsm_gprs_tasks.o(.data) for gprs_Task
    upload_config_task.o(.text) refers to gsm_gprs_tasks.o(.bss) for tTaskPhaseTimeOut
    upload_config_task.o(.text) refers to at_command_parser.o(.data) for gprsDeactivationFlag
    upload_config_task.o(.text) refers to modem.o(.data) for modemError
    upload_config_task.o(.text) refers to memcpya.o(.text) for __aeabi_memcpy
    upload_config_task.o(.text) refers to gprs_cmd_ctrl.o(.text) for DCFG_Add
    upload_config_task.o(.text) refers to at_command_parser.o(.bss) for DNS_serverIp
    upload_config_task.o(.text) refers to project_common.o(.bss) for mainBuf
    upload_config_task.o(.text) refers to at_command_parser.o(.text) for GPRS_CmdRecvData
    gps_task.o(.text) refers to power_management.o(i.__ARM_common_switch8) for __ARM_common_switch8
    gps_task.o(.text) refers to gps.o(.text) for nmea_zero_INFO
    gps_task.o(.text) refers to sys_time.o(.text) for TIME_FromGps
    gps_task.o(.text) refers to cdcmple.o(.text) for __aeabi_cdcmpeq
    gps_task.o(.text) refers to cdrcmple.o(.text) for __aeabi_cdrcmple
    gps_task.o(.text) refers to memcpya.o(.text) for __aeabi_memcpy4
    gps_task.o(.text) refers to d2f.o(.text) for __aeabi_d2f
    gps_task.o(.text) refers to f2d.o(.text) for __aeabi_f2d
    gps_task.o(.text) refers to db.o(.text) for DB_FloatToU32
    gps_task.o(.text) refers to tick.o(.text) for UpdateRtcTime
    gps_task.o(.text) refers to gps_task.o(.data) for GPS_phase
    gps_task.o(.text) refers to system_config.o(.bss) for sysCfg
    gps_task.o(.text) refers to gps.o(.bss) for gpsInfo
    gps_task.o(.text) refers to db.o(.bss) for gpsLat
    gps_task.o(.text) refers to modem.o(.bss) for cellLocate
    start.o(.text) refers to sysinit.o(.text) for sysinit
    start.o(.text) refers to uart.o(.text) for uart_init
    start.o(.text) refers to rcm.o(.text) for outSRS
    start.o(.text) refers to power_management.o(i.__ARM_common_switch8) for __ARM_common_switch8
    start.o(.text) refers to sysinit.o(.data) for periph_clk_khz
    sysinit.o(.text) refers to uidiv.o(.text) for __aeabi_uidivmod
    sysinit.o(.text) refers to idiv.o(.text) for __aeabi_idivmod
    sysinit.o(.text) refers to system_mkl25z4.o(.data) for SystemCoreClock
    sysinit.o(.text) refers to sysinit.o(.data) for mcg_clk_hz
    system_mkl25z4.o(.text) refers to uidiv.o(.text) for __aeabi_uidivmod
    system_mkl25z4.o(.text) refers to power_management.o(i.__ARM_common_switch8) for __ARM_common_switch8
    system_mkl25z4.o(.text) refers to system_mkl25z4.o(.data) for SystemCoreClock
    startup_mkl25z4.o(RESET) refers to startup_mkl25z4.o(.text) for Reset_Handler
    startup_mkl25z4.o(RESET) refers to nmi_isr_handler.o(.text) for NMI_Handler
    startup_mkl25z4.o(RESET) refers to project_main.o(.text) for HardFault_Handler
    startup_mkl25z4.o(RESET) refers to tick.o(.text) for SysTick_Handler
    startup_mkl25z4.o(RESET) refers to llwu.o(.text) for LLW_IRQHandler
    startup_mkl25z4.o(RESET) refers to uart.o(.text) for UART0_IRQHandler
    startup_mkl25z4.o(RESET) refers to dbg_cfg_app.o(.text) for TPM0_IRQHandler
    startup_mkl25z4.o(RESET) refers to audio.o(.text) for TPM1_IRQHandler
    startup_mkl25z4.o(RESET) refers to dtmf_app.o(.text) for TPM2_IRQHandler
    startup_mkl25z4.o(RESET) refers to usbhw.o(.text) for USB0_IRQHandler
    startup_mkl25z4.o(.text) refers to system_mkl25z4.o(.text) for SystemInit
    startup_mkl25z4.o(.text) refers to entry.o(.ARM.Collect$$$$00000000) for __main
    llwu.o(.text) refers to tick.o(.text) for LPTimerTask
    llwu.o(.text) refers to llwu.o(.data) for llwuSource
    mcg.o(.text) refers to idiv.o(.text) for __aeabi_idivmod
    mcg.o(.text) refers to uidiv.o(.text) for __aeabi_uidivmod
    mcg.o(.text) refers to fflti.o(.text) for __aeabi_i2f
    mcg.o(.text) refers to fdiv.o(.text) for __aeabi_fdiv
    mcg.o(.text) refers to fmul.o(.text) for __aeabi_fmul
    mcg.o(.text) refers to ffixui.o(.text) for __aeabi_f2uiz
    uart.o(.text) refers to ringbuf.o(.text) for RINGBUF_Init
    uart.o(.text) refers to uidiv.o(.text) for __aeabi_uidivmod
    uart.o(.text) refers to gps.o(.text) for GPS_ComnandParser
    uart.o(.text) refers to at_command_parser.o(.text) for AT_ComnandParser
    uart.o(.text) refers to uart.o(.bss) for USART1_RxBuff
    uart.o(.text) refers to dbg_cfg_app.o(.data) for logEnable
    uart.o(.text) refers to dbg_cfg_app.o(.bss) for comRingBuf
    flash_ftfa.o(.text) refers to flash_ramfunc.o(.text) for SpSub
    usbcore.o(.text) refers to usbhw.o(.text) for USB_ReadEP
    usbcore.o(.text) refers to power_management.o(i.__ARM_common_switch8) for __ARM_common_switch8
    usbcore.o(.text) refers to usbcore.o(i.USB_ReqGetStatus) for USB_ReqGetStatus
    usbcore.o(.text) refers to usbcore.o(i.USB_ReqSetClrFeature) for USB_ReqSetClrFeature
    usbcore.o(.text) refers to usbcore.o(i.USB_ReqGetDescriptor) for USB_ReqGetDescriptor
    usbcore.o(.text) refers to usbcore.o(i.USB_ReqSetConfiguration) for USB_ReqSetConfiguration
    usbcore.o(.text) refers to usbuser.o(.text) for USB_Configure_Event
    usbcore.o(.text) refers to usbcore.o(i.USB_ReqSetInterface) for USB_ReqSetInterface
    usbcore.o(.text) refers to hiduser.o(.text) for HID_GetReport
    usbcore.o(.text) refers to usbcore.o(.data) for USB_DeviceStatus
    usbcore.o(.text) refers to usbcore.o(.bss) for EP0Buf
    usbhw.o(.text) refers to usbhw.o(.data) for OutEpSize
    usbhw.o(.text) refers to usbhw.o(.bss) for BD
    usbhw.o(.text) refers to usbcore.o(.data) for USB_DeviceStatus
    usbhw.o(.text) refers to usbuser.o(.text) for USB_Reset_Event
    usbhw.o(.text) refers to usbuser.o(.constdata) for USB_P_EP
    usbuser.o(.text) refers to usbcore.o(.text) for USB_ResetCore
    usbuser.o(.text) refers to hiduser.o(.text) for GetInReport
    usbuser.o(.text) refers to usbcore.o(.data) for USB_Configuration
    usbuser.o(.constdata) refers to usbcore.o(.text) for USB_EndPoint0
    usbuser.o(.constdata) refers to usbuser.o(.text) for USB_EndPoint1
    hiduser.o(.text) refers to usbhw.o(.text) for USB_ReadEP
    hiduser.o(.text) refers to ringbuf.o(.text) for RINGBUF_Put
    hiduser.o(.text) refers to hiduser.o(.bss) for HID_RxRingBuff
    hiduser.o(.text) refers to hiduser.o(.data) for HID_DepInEmpty
    hiduser.o(.text) refers to usbcore.o(.data) for SetupPacket
    hiduser.o(.text) refers to usbcore.o(.bss) for EP0Buf
    sst25.o(.text) refers to spi.o(.text) for SPI_Init
    sst25.o(.text) refers to sst25.o(.data) for countErrTemp
    modem.o(.text) refers to scanf_fp.o(.text) for _scanf_real
    modem.o(.text) refers to ringbuf.o(.text) for RINGBUF_Get
    modem.o(.text) refers to printfa.o(i.__0vsprintf) for __c89vsprintf
    modem.o(.text) refers to uart.o(.text) for uart_putchar
    modem.o(.text) refers to tick.o(.text) for DelayMs
    modem.o(.text) refers to strcpy.o(.text) for strcpy
    modem.o(.text) refers to power_management.o(i.__ARM_common_switch8) for __ARM_common_switch8
    modem.o(.text) refers to gsm_gprs_tasks.o(.text) for GsmTask_Init
    modem.o(.text) refers to modem.o(.data) for criticalCmd
    modem.o(.text) refers to uart.o(.bss) for USART1_RxRingBuff
    modem.o(.text) refers to modem.o(.bss) for buffer
    modem.o(.text) refers to sysinit.o(.data) for periph_clk_khz
    modem.o(.text) refers to tick.o(.data) for ringingDetectFlag
    modem.o(.text) refers to printf8.o(i.__0sprintf$8) for __2sprintf
    modem.o(.text) refers to gps.o(.text) for nmea_scanf
    modem.o(.text) refers to cdcmple.o(.text) for __aeabi_cdcmple
    modem.o(.text) refers to sys_time.o(.text) for TIME_GetSec
    modem.o(.text) refers to cdrcmple.o(.text) for __aeabi_cdrcmple
    modem.o(.text) refers to memcpya.o(.text) for __aeabi_memcpy4
    modem.o(.text) refers to audio.o(.text) for AudioEnable
    modem.o(.text) refers to at_command_parser.o(.data) for socketMask
    modem.o(.text) refers to at_command_parser.o(.bss) for cellLocationBuf
    modem.o(.text) refers to __0sscanf.o(.text) for __0sscanf
    modem.o(.text) refers to ffixui.o(.text) for __aeabi_f2uiz
    modem.o(.text) refers to ffltui.o(.text) for __aeabi_ui2f
    modem.o(.text) refers to cfcmple.o(.text) for __aeabi_cfcmple
    modem.o(.data) refers to modem.o(.conststring) for .conststring
    at_command_parser.o(.text) refers to _scanf_str.o(.text) for _scanf_string
    at_command_parser.o(.text) refers to _scanf_int.o(.text) for _scanf_int
    at_command_parser.o(.text) refers to scanf_fp.o(.text) for _scanf_real
    at_command_parser.o(.text) refers to ringbuf.o(.text) for RINGBUF_Init
    at_command_parser.o(.text) refers to string_parser.o(.text) for StrParserInit
    at_command_parser.o(.text) refers to power_management.o(i.__ARM_common_switch8) for __ARM_common_switch8
    at_command_parser.o(.text) refers to at_command_parser.o(.bss) for smsUnreadBuff
    at_command_parser.o(.text) refers to at_command_parser.o(.data) for RingBuffInit
    at_command_parser.o(.text) refers to at_command_parser.o(.constdata) for AT_ProcessCmd
    at_command_parser.o(.text) refers to modem.o(.data) for batteryPercent
    at_command_parser.o(.text) refers to tick.o(.text) for TICK_Get
    at_command_parser.o(.text) refers to printf8.o(i.__0sprintf$8) for __2sprintf
    at_command_parser.o(.text) refers to uart.o(.text) for uart_putstr
    at_command_parser.o(.text) refers to io_tasks.o(.bss) for incomingCallPhoneNo
    at_command_parser.o(.text) refers to strstr.o(.text) for strstr
    at_command_parser.o(.text) refers to gsm_gprs_tasks.o(.text) for GprsTask_StartTask
    at_command_parser.o(.text) refers to strlen.o(.text) for strlen
    at_command_parser.o(.text) refers to gps_task.o(.text) for GpsTask_EnableGps
    at_command_parser.o(.text) refers to __0sscanf.o(.text) for __0sscanf
    at_command_parser.o(.text) refers to memcpya.o(.text) for __aeabi_memcpy
    at_command_parser.o(.text) refers to pedometer_task.o(.data) for Pedometer
    at_command_parser.o(.text) refers to system_config.o(.bss) for sysCfg
    at_command_parser.o(.text) refers to db.o(.text) for DB_LogRingReset
    at_command_parser.o(.text) refers to sst25.o(.text) for SST25_Erase
    at_command_parser.o(.text) refers to memseta.o(.text) for __aeabi_memset
    at_command_parser.o(.text) refers to system_config.o(.text) for CFG_Save
    at_command_parser.o(.text) refers to db.o(.bss) for trackerLog
    at_command_parser.o(.text) refers to system_config.o(.data) for sysUploadConfig
    at_command_parser.o(.text) refers to cdcmple.o(.text) for __aeabi_cdcmpeq
    at_command_parser.o(.text) refers to cfrcmple.o(.text) for __aeabi_cfrcmple
    at_command_parser.o(.text) refers to cfcmple.o(.text) for __aeabi_cfcmple
    at_command_parser.o(.text) refers to uwrite8.o(.text) for __aeabi_uwrite8
    at_command_parser.o(.text) refers to uwrite4.o(.text) for __aeabi_uwrite4
    at_command_parser.o(.text) refers to sos_tasks.o(.bss) for addressData
    at_command_parser.o(.text) refers to sys_time.o(.text) for TIME_GetSec
    at_command_parser.o(.text) refers to modem.o(.text) for MODEM_CheckResponse
    at_command_parser.o(.text) refers to sys_time.o(.data) for timeZone
    at_command_parser.o(.text) refers to audio.o(.text) for AudioStopAll
    at_command_parser.o(.constdata) refers to at_command_parser.o(.text) for GetCallerNumber
    at_command_parser.o(.data) refers to at_command_parser.o(.conststring) for .conststring
    system_config.o(.text) refers to uwrite4.o(.text) for __aeabi_uwrite4
    system_config.o(.text) refers to flash_ftfa.o(.text) for Flash_SectorErase
    system_config.o(.text) refers to memcpya.o(.text) for __aeabi_memcpy
    system_config.o(.text) refers to uread4.o(.text) for __aeabi_uread4
    system_config.o(.text) refers to memseta.o(.text) for __aeabi_memset
    system_config.o(.text) refers to strcpy.o(.text) for strcpy
    system_config.o(.text) refers to uwrite8.o(.text) for __aeabi_uwrite8
    system_config.o(.text) refers to system_config.o(.bss) for sysCfg
    system_config.o(.text) refers to tick.o(.data) for flagLoneWorkerReset
    m_time.o(.text) refers to uidiv.o(.text) for __aeabi_uidivmod
    m_time.o(.text) refers to idiv.o(.text) for __aeabi_idivmod
    m_time.o(.text) refers to m_time.o(.constdata) for _ytab
    m_time.o(.text) refers to m_time.o(.data) for _timezone
    sys_time.o(.text) refers to m_time.o(.text) for mktime
    string_parser.o(.text) refers to tick.o(.text) for TICK_Get
    string_parser.o(.text) refers to string_parser.o(.data) for lastChar
    db.o(.text) refers to sst25.o(.text) for SST25_Read
    db.o(.text) refers to uread4.o(.text) for __aeabi_uread4
    db.o(.text) refers to uidiv.o(.text) for __aeabi_uidivmod
    db.o(.text) refers to uwrite4.o(.text) for __aeabi_uwrite4
    db.o(.text) refers to memcpya.o(.text) for __aeabi_memcpy
    db.o(.text) refers to db.o(.data) for resetNum
    db.o(.text) refers to db.o(.bss) for trackerLog
    db.o(.text) refers to f2d.o(.text) for __aeabi_f2d
    db.o(.text) refers to gps.o(.text) for neamFormatLatLng
    db.o(.text) refers to cfcmple.o(.text) for __aeabi_cfcmple
    db.o(.text) refers to cdcmple.o(.text) for __aeabi_cdcmple
    db.o(.text) refers to cdrcmple.o(.text) for __aeabi_cdrcmple
    db.o(.text) refers to d2f.o(.text) for __aeabi_d2f
    db.o(.text) refers to memcmp.o(.text) for memcmp
    db.o(.text) refers to sys_time.o(.data) for timeZone
    db.o(.text) refers to gps.o(.bss) for lastGpsInfo
    db.o(.text) refers to modem.o(.bss) for cellLocate
    tracker.o(.text) refers to audio.o(.text) for AudioStopCheck
    tracker.o(.text) refers to pedometer_task.o(.text) for PedometerTask
    tracker.o(.text) refers to gps_task.o(.text) for GpsTask_Control
    tracker.o(.text) refers to db.o(.text) for DB_U32Save
    tracker.o(.text) refers to uidiv.o(.text) for __aeabi_uidivmod
    tracker.o(.text) refers to gsm_gprs_tasks.o(.text) for GprsTask_StartTask
    tracker.o(.text) refers to modem.o(.text) for ParserCellLocate
    tracker.o(.text) refers to sys_time.o(.text) for TIME_FromGsm
    tracker.o(.text) refers to tick.o(.text) for UpdateRtcTime
    tracker.o(.text) refers to memcpya.o(.text) for __aeabi_memcpy
    tracker.o(.text) refers to uwrite4.o(.text) for __aeabi_uwrite4
    tracker.o(.text) refers to cdcmple.o(.text) for __aeabi_cdcmple
    tracker.o(.text) refers to cdrcmple.o(.text) for __aeabi_cdrcmple
    tracker.o(.text) refers to gps.o(.text) for neamFormatLatLng
    tracker.o(.text) refers to uwrite8.o(.text) for __aeabi_uwrite8
    tracker.o(.text) refers to d2f.o(.text) for __aeabi_d2f
    tracker.o(.text) refers to tracker.o(.bss) for trackerMsg
    tracker.o(.text) refers to tracker.o(.data) for timer0Cnt
    tracker.o(.text) refers to project_main.o(.data) for pedometerEnable
    tracker.o(.text) refers to pedometer_task.o(.data) for Pedometer
    tracker.o(.text) refers to gps_task.o(.data) for gpsPedometerFlag
    tracker.o(.text) refers to db.o(.bss) for pwrStatus
    tracker.o(.text) refers to tick.o(.data) for rtcTimeSec
    tracker.o(.text) refers to system_config.o(.bss) for sysCfg
    tracker.o(.text) refers to modem.o(.bss) for cellLocate
    tracker.o(.text) refers to at_command_parser.o(.data) for gsmGetTimeFlag
    tracker.o(.text) refers to sys_time.o(.data) for sysTime
    tracker.o(.text) refers to gps.o(.bss) for lastGpsInfo
    tracker.o(.text) refers to ffixui.o(.text) for __aeabi_f2uiz
    tracker.o(.text) refers to uread4.o(.text) for __aeabi_uread4
    tracker.o(.text) refers to gprs_cmd_ctrl.o(.text) for DGPS_Add
    tracker.o(.text) refers to db.o(.data) for mileage
    tracker.o(.text) refers to sos_tasks.o(.data) for sosAction
    tracker.o(.text) refers to modem.o(.data) for csqValue
    gprs_cmd_ctrl.o(.text) refers to _scanf_int.o(.text) for _scanf_int
    gprs_cmd_ctrl.o(.text) refers to _scanf_str.o(.text) for _scanf_string
    gprs_cmd_ctrl.o(.text) refers to printf8.o(i.__0sprintf$8) for __2sprintf
    gprs_cmd_ctrl.o(.text) refers to __0sscanf.o(.text) for __0sscanf
    gprs_cmd_ctrl.o(.text) refers to strcmp.o(.text) for strcmp
    gprs_cmd_ctrl.o(.text) refers to strcat.o(.text) for strcat
    gprs_cmd_ctrl.o(.text) refers to strlen.o(.text) for strlen
    gprs_cmd_ctrl.o(.text) refers to idiv.o(.text) for __aeabi_idivmod
    gprs_cmd_ctrl.o(.text) refers to uread8.o(.text) for __aeabi_uread8
    gprs_cmd_ctrl.o(.text) refers to gps.o(.text) for formatLatLng
    gprs_cmd_ctrl.o(.text) refers to dfixui.o(.text) for __aeabi_d2uiz
    gprs_cmd_ctrl.o(.text) refers to dfltui.o(.text) for __aeabi_ui2d
    gprs_cmd_ctrl.o(.text) refers to dadd.o(.text) for __aeabi_drsub
    gprs_cmd_ctrl.o(.text) refers to dmul.o(.text) for __aeabi_dmul
    gprs_cmd_ctrl.o(.text) refers to system_config.o(.bss) for sysCfg
    gprs_cmd_ctrl.o(.text) refers to uread4.o(.text) for __aeabi_uread4
    gprs_cmd_ctrl.o(.text) refers to ffixui.o(.text) for __aeabi_f2uiz
    gprs_cmd_ctrl.o(.text) refers to ffltui.o(.text) for __aeabi_ui2f
    gprs_cmd_ctrl.o(.text) refers to fadd.o(.text) for __aeabi_frsub
    gprs_cmd_ctrl.o(.text) refers to fmul.o(.text) for __aeabi_fmul
    gprs_cmd_ctrl.o(.text) refers to fdiv.o(.text) for __aeabi_fdiv
    gprs_cmd_ctrl.o(.text) refers to f2d.o(.text) for __aeabi_f2d
    gprs_cmd_ctrl.o(.text) refers to sys_time.o(.text) for TIME_GetSec
    gprs_cmd_ctrl.o(.text) refers to cdcmple.o(.text) for __aeabi_cdcmpeq
    gprs_cmd_ctrl.o(.text) refers to cdrcmple.o(.text) for __aeabi_cdrcmple
    gprs_cmd_ctrl.o(.text) refers to sys_time.o(.data) for sysTime
    gprs_cmd_ctrl.o(.text) refers to sos_tasks.o(.bss) for sosStartTime
    gprs_cmd_ctrl.o(.text) refers to sos_tasks.o(.data) for sosActionSms
    gprs_cmd_ctrl.o(.text) refers to gps.o(.bss) for lastGpsInfo
    gprs_cmd_ctrl.o(.text) refers to gps_task.o(.data) for lastGpsFixed
    gprs_cmd_ctrl.o(.text) refers to modem.o(.bss) for cellLocate
    gprs_cmd_ctrl.o(.text) refers to modem.o(.data) for batteryPercent
    gps.o(.text) refers to gps.o(.data) for GPRMC_gotDataFlag
    gps.o(.text) refers to gps.o(.bss) for buffGPRMC
    gps.o(.text) refers to gps.o(.constdata) for GPS_ProcessCmd
    gps.o(.text) refers to dfixui.o(.text) for __aeabi_d2uiz
    gps.o(.text) refers to dfltui.o(.text) for __aeabi_ui2d
    gps.o(.text) refers to dadd.o(.text) for __aeabi_drsub
    gps.o(.text) refers to dmul.o(.text) for __aeabi_dmul
    gps.o(.text) refers to ddiv.o(.text) for __aeabi_ddiv
    gps.o(.text) refers to floor.o(i.floor) for floor
    gps.o(.text) refers to tick.o(.text) for InitTimeout
    gps.o(.text) refers to memcpya.o(.text) for __aeabi_memcpy4
    gps.o(.text) refers to memseta.o(.text) for __aeabi_memclr4
    gps.o(.text) refers to strtol.o(.text) for strtol
    gps.o(.text) refers to strtod.o(i.strtod) for strtod
    gps.o(.text) refers to ctype_o.o(.text) for __rt_ctype_table
    gps.o(.text) refers to memchr.o(.text) for memchr
    gps.o(.text) refers to strlen.o(.text) for strlen
    gps.o(.constdata) refers to gps.o(.text) for GPRMC_Process
    tick.o(.text) refers to gsm_gprs_tasks.o(.text) for GprsTask_GetPhase
    tick.o(.text) refers to io_tasks.o(.text) for Keys_Init
    tick.o(.text) refers to modem.o(.data) for flagGsmStatus
    tick.o(.text) refers to tick.o(.data) for greenLedFlashCnt
    tick.o(.text) refers to gps.o(.bss) for gpsInfo
    tick.o(.text) refers to db.o(.bss) for pwrStatus
    tick.o(.text) refers to tick.o(.bss) for key
    tick.o(.text) refers to io_tasks.o(.data) for powerAndSosKeyHold3Sec
    tick.o(.text) refers to system_config.o(.bss) for sysCfg
    tick.o(.text) refers to sos_tasks.o(.data) for loneWorkerSos
    tick.o(.text) refers to sys_time.o(.text) for TIME_FromSec
    tick.o(.text) refers to uidiv.o(.text) for __aeabi_uidivmod
    tick.o(.text) refers to strlen.o(.text) for strlen
    tick.o(.text) refers to at_command_parser.o(.data) for incomingCall
    tick.o(.text) refers to project_main.o(.data) for ringingCount
    tick.o(.text) refers to sys_time.o(.data) for sysTime
    tick.o(.text) refers to gps_task.o(.data) for flagSaveTime
    dbg_cfg_app.o(.text) refers to printfa.o(i.__0vsprintf) for __c89vsprintf
    dbg_cfg_app.o(.text) refers to ringbuf.o(.text) for RINGBUF_Put
    dbg_cfg_app.o(.text) refers to power_management.o(i.__ARM_common_switch8) for __ARM_common_switch8
    dbg_cfg_app.o(.text) refers to dbg_cfg_app.o(.bss) for buffer
    dbg_cfg_app.o(.text) refers to dbg_cfg_app.o(.data) for logEnable
    dbg_cfg_app.o(.text) refers to hiduser.o(.bss) for HID_TxRingBuff
    dbg_cfg_app.o(.text) refers to system_config.o(.bss) for sysCfg
    dbg_cfg_app.o(.text) refers to system_config.o(.text) for CFG_Save
    dbg_cfg_app.o(.text) refers to uread4.o(.text) for __aeabi_uread4
    dbg_cfg_app.o(.text) refers to sst25.o(.text) for SST25_Read
    dbg_cfg_app.o(.text) refers to db.o(.text) for DB_LogRingReset
    dbg_cfg_app.o(.text) refers to memseta.o(.text) for __aeabi_memset
    dbg_cfg_app.o(.text) refers to system_config.o(.data) for sysUploadConfig
    dbg_cfg_app.o(.text) refers to db.o(.bss) for trackerLog
    dbg_cfg_app.o(.text) refers to usbhw.o(.text) for USB_WriteEP
    dbg_cfg_app.o(.text) refers to uidiv.o(.text) for __aeabi_uidivmod
    dbg_cfg_app.o(.text) refers to tracker.o(.text) for TrackerTask
    dbg_cfg_app.o(.text) refers to sys_time.o(.text) for TIME_GetSec
    dbg_cfg_app.o(.text) refers to memcpya.o(.text) for __aeabi_memcpy
    dbg_cfg_app.o(.text) refers to audio.o(.text) for AudioControler
    dbg_cfg_app.o(.text) refers to dtmf_app.o(.text) for DTMF_Task
    dbg_cfg_app.o(.text) refers to tick.o(.text) for TICK_Get
    dbg_cfg_app.o(.text) refers to hiduser.o(.data) for HID_DepInEmpty
    dbg_cfg_app.o(.text) refers to tracker.o(.bss) for trackerMsg
    dbg_cfg_app.o(.text) refers to sys_time.o(.data) for sysTime
    dbg_cfg_app.o(.text) refers to usbcore.o(.data) for USB_Configuration
    diskio.o(.text) refers to flash_mem.o(.text) for MMC_disk_initialize
    ff.o(.text) refers to diskio.o(.text) for disk_read
    ff.o(.text) refers to uidiv.o(.text) for __aeabi_uidivmod
    ff.o(.text) refers to ff.o(.constdata) for ExCvt
    ff.o(.text) refers to ff.o(.data) for FatFs
    flash_mem.o(.text) refers to sst25.o(.text) for SST25_Read
    audio.o(.text) refers to uidiv.o(.text) for __aeabi_uidivmod
    audio.o(.text) refers to ringbuf.o(.text) for RINGBUF_Get
    audio.o(.text) refers to diskio.o(.text) for disk_initialize
    audio.o(.text) refers to ff.o(.text) for f_mount
    audio.o(.text) refers to power_management.o(.text) for SetLowPowerModes
    audio.o(.text) refers to tick.o(.text) for DelayMs
    audio.o(.text) refers to strlen.o(.text) for strlen
    audio.o(.text) refers to strcpy.o(.text) for strcpy
    audio.o(.text) refers to audio.o(.data) for adcInit
    audio.o(.text) refers to audio.o(.bss) for audioPlayRingBuff
    audio.o(.text) refers to project_common.o(.bss) for sdfs
    audio.o(.text) refers to printf8.o(i.__0sprintf$8) for __2sprintf
    audio.o(.text) refers to system_config.o(.bss) for sysCfg
    audio.o(.text) refers to sysinit.o(.data) for mcg_clk_hz
    audio.o(.text) refers to power_management.o(.data) for lpwMode
    dtmf_app.o(.text) refers to uidiv.o(.text) for __aeabi_uidivmod
    dtmf_app.o(.text) refers to ringbuf.o(.text) for RINGBUF_Init
    dtmf_app.o(.text) refers to dtmf.o(.text) for DTMF_Detect
    dtmf_app.o(.text) refers to dtmf_app.o(.data) for dail1
    dtmf_app.o(.text) refers to dtmf_app.o(.bss) for DTMF_buf
    dtmf_app.o(.text) refers to sysinit.o(.data) for mcg_clk_hz
    dtmf.o(.text) refers to dtmf.o(.bss) for DTMFin
    xl362_io.o(.text) refers to spi.o(.text) for halSpiWriteByte
    ambo_pedometer.o(.text) refers to ambo_pedometer.o(.bss) for sample_x
    ambo_pedometer.o(.text) refers to ambo_pedometer.o(.data) for first_loop
    ambo_pedometer.o(.text) refers to ambo_pedometer.o(.constdata) for table
    pedometer_task.o(.text) refers to spi.o(.text) for SPI_Init
    pedometer_task.o(.text) refers to xl362_io.o(.text) for xl362Init
    pedometer_task.o(.text) refers to ambo_pedometer.o(.text) for ambo_pedometer_init
    pedometer_task.o(.text) refers to system_config.o(.bss) for sysCfg
    pedometer_task.o(.text) refers to pedometer_task.o(.data) for devicePosition
    pedometer_task.o(.text) refers to pedometer_task.o(.bss) for xl362
    pedometer_task.o(.text) refers to gps_task.o(.data) for movementToCheckGps
    pedometer_task.o(.text) refers to tick.o(.data) for flagNoMovementReset
    pedometer_task.o(.text) refers to tracker.o(.data) for hasMoved
    floor.o(i.__softfp_floor) refers (Special) to iusefp.o(.text) for __I$use$fp
    floor.o(i.__softfp_floor) refers to floor.o(i.floor) for floor
    floor.o(i.floor) refers (Special) to iusefp.o(.text) for __I$use$fp
    floor.o(i.floor) refers to dadd.o(.text) for __aeabi_dadd
    floor.o(i.floor) refers to cdrcmple.o(.text) for __aeabi_cdrcmple
    strtod.o(i.__softfp_strtod) refers (Special) to iusefp.o(.text) for __I$use$fp
    strtod.o(i.__softfp_strtod) refers to strtod.o(.text) for __strtod_int
    strtod.o(i.strtod) refers (Special) to iusefp.o(.text) for __I$use$fp
    strtod.o(i.strtod) refers to strtod.o(.text) for __strtod_int
    entry.o(.ARM.Collect$$$$00000000) refers (Special) to entry10a.o(.ARM.Collect$$$$0000000D) for __rt_final_cpp
    entry.o(.ARM.Collect$$$$00000000) refers (Special) to entry11a.o(.ARM.Collect$$$$0000000F) for __rt_final_exit
    entry.o(.ARM.Collect$$$$00000000) refers (Special) to entry7b.o(.ARM.Collect$$$$00000008) for _main_clock
    entry.o(.ARM.Collect$$$$00000000) refers (Special) to entry8b.o(.ARM.Collect$$$$0000000A) for _main_cpp_init
    entry.o(.ARM.Collect$$$$00000000) refers (Special) to entry9a.o(.ARM.Collect$$$$0000000B) for _main_init
    entry.o(.ARM.Collect$$$$00000000) refers (Special) to entry5.o(.ARM.Collect$$$$00000004) for _main_scatterload
    entry.o(.ARM.Collect$$$$00000000) refers (Special) to entry2.o(.ARM.Collect$$$$00000001) for _main_stk
    idiv.o(.text) refers to uidiv.o(.text) for __aeabi_uidivmod
    ctype_o.o(.text) refers to ctype_o.o(.constdata) for .constdata
    ctype_o.o(.constdata) refers to ctype_o.o(.constdata) for __ctype_table
    isalnum_o.o(.text) refers to ctype_o.o(.text) for __rt_ctype_table
    isalpha_o.o(.text) refers to ctype_o.o(.text) for __rt_ctype_table
    isblank_o.o(.text) refers to ctype_o.o(.constdata) for __ctype_table
    iscntrl_o.o(.text) refers to ctype_o.o(.text) for __rt_ctype_table
    isdigit_o.o(.text) refers to ctype_o.o(.text) for __rt_ctype_table
    isgraph_o.o(.text) refers to ctype_o.o(.text) for __rt_ctype_table
    islower_o.o(.text) refers to ctype_o.o(.text) for __rt_ctype_table
    isprint_o.o(.text) refers to ctype_o.o(.text) for __rt_ctype_table
    ispunct_o.o(.text) refers to ctype_o.o(.text) for __rt_ctype_table
    isspace_o.o(.text) refers to ctype_o.o(.text) for __rt_ctype_table
    isupper_o.o(.text) refers to ctype_o.o(.text) for __rt_ctype_table
    isxdigit_o.o(.text) refers to ctype_o.o(.text) for __rt_ctype_table
    printfb.o(i.__0fprintf$bare) refers to printfb.o(i._printf_core) for _printf_core
    printfb.o(i.__0fprintf$bare) refers to fputc.o(i.fputc) for fputc
    printfb.o(i.__0printf$bare) refers to printfb.o(i._printf_core) for _printf_core
    printfb.o(i.__0printf$bare) refers to fputc.o(i.fputc) for fputc
    printfb.o(i.__0printf$bare) refers to stdout.o(.data) for __stdout
    printfb.o(i.__0snprintf$bare) refers to printfb.o(i._printf_core) for _printf_core
    printfb.o(i.__0snprintf$bare) refers to printfb.o(i._snputc) for _snputc
    printfb.o(i.__0sprintf$bare) refers to printfb.o(i._printf_core) for _printf_core
    printfb.o(i.__0sprintf$bare) refers to printfb.o(i._sputc) for _sputc
    printfb.o(i.__0vfprintf$bare) refers to printfb.o(i._printf_core) for _printf_core
    printfb.o(i.__0vfprintf$bare) refers to fputc.o(i.fputc) for fputc
    printfb.o(i.__0vprintf$bare) refers to printfb.o(i._printf_core) for _printf_core
    printfb.o(i.__0vprintf$bare) refers to fputc.o(i.fputc) for fputc
    printfb.o(i.__0vprintf$bare) refers to stdout.o(.data) for __stdout
    printfb.o(i.__0vsnprintf$bare) refers to printfb.o(i._printf_core) for _printf_core
    printfb.o(i.__0vsnprintf$bare) refers to printfb.o(i._snputc) for _snputc
    printfb.o(i.__0vsprintf$bare) refers to printfb.o(i._printf_core) for _printf_core
    printfb.o(i.__0vsprintf$bare) refers to printfb.o(i._sputc) for _sputc
    printf0.o(i.__0fprintf$0) refers to printf0.o(i._printf_core) for _printf_core
    printf0.o(i.__0fprintf$0) refers to fputc.o(i.fputc) for fputc
    printf0.o(i.__0printf$0) refers to printf0.o(i._printf_core) for _printf_core
    printf0.o(i.__0printf$0) refers to fputc.o(i.fputc) for fputc
    printf0.o(i.__0printf$0) refers to stdout.o(.data) for __stdout
    printf0.o(i.__0snprintf$0) refers to printf0.o(i._printf_core) for _printf_core
    printf0.o(i.__0snprintf$0) refers to printf0.o(i._snputc) for _snputc
    printf0.o(i.__0sprintf$0) refers to printf0.o(i._printf_core) for _printf_core
    printf0.o(i.__0sprintf$0) refers to printf0.o(i._sputc) for _sputc
    printf0.o(i.__0vfprintf$0) refers to printf0.o(i._printf_core) for _printf_core
    printf0.o(i.__0vfprintf$0) refers to fputc.o(i.fputc) for fputc
    printf0.o(i.__0vprintf$0) refers to printf0.o(i._printf_core) for _printf_core
    printf0.o(i.__0vprintf$0) refers to fputc.o(i.fputc) for fputc
    printf0.o(i.__0vprintf$0) refers to stdout.o(.data) for __stdout
    printf0.o(i.__0vsnprintf$0) refers to printf0.o(i._printf_core) for _printf_core
    printf0.o(i.__0vsnprintf$0) refers to printf0.o(i._snputc) for _snputc
    printf0.o(i.__0vsprintf$0) refers to printf0.o(i._printf_core) for _printf_core
    printf0.o(i.__0vsprintf$0) refers to printf0.o(i._sputc) for _sputc
    printf1.o(i.__0fprintf$1) refers to printf1.o(i._printf_core) for _printf_core
    printf1.o(i.__0fprintf$1) refers to fputc.o(i.fputc) for fputc
    printf1.o(i.__0printf$1) refers to printf1.o(i._printf_core) for _printf_core
    printf1.o(i.__0printf$1) refers to fputc.o(i.fputc) for fputc
    printf1.o(i.__0printf$1) refers to stdout.o(.data) for __stdout
    printf1.o(i.__0snprintf$1) refers to printf1.o(i._printf_core) for _printf_core
    printf1.o(i.__0snprintf$1) refers to printf1.o(i._snputc) for _snputc
    printf1.o(i.__0sprintf$1) refers to printf1.o(i._printf_core) for _printf_core
    printf1.o(i.__0sprintf$1) refers to printf1.o(i._sputc) for _sputc
    printf1.o(i.__0vfprintf$1) refers to printf1.o(i._printf_core) for _printf_core
    printf1.o(i.__0vfprintf$1) refers to fputc.o(i.fputc) for fputc
    printf1.o(i.__0vprintf$1) refers to printf1.o(i._printf_core) for _printf_core
    printf1.o(i.__0vprintf$1) refers to fputc.o(i.fputc) for fputc
    printf1.o(i.__0vprintf$1) refers to stdout.o(.data) for __stdout
    printf1.o(i.__0vsnprintf$1) refers to printf1.o(i._printf_core) for _printf_core
    printf1.o(i.__0vsnprintf$1) refers to printf1.o(i._snputc) for _snputc
    printf1.o(i.__0vsprintf$1) refers to printf1.o(i._printf_core) for _printf_core
    printf1.o(i.__0vsprintf$1) refers to printf1.o(i._sputc) for _sputc
    printf1.o(i._printf_core) refers to uidiv.o(.text) for __aeabi_uidivmod
    printf2.o(i.__0fprintf$2) refers to printf2.o(i._printf_core) for _printf_core
    printf2.o(i.__0fprintf$2) refers to fputc.o(i.fputc) for fputc
    printf2.o(i.__0printf$2) refers to printf2.o(i._printf_core) for _printf_core
    printf2.o(i.__0printf$2) refers to fputc.o(i.fputc) for fputc
    printf2.o(i.__0printf$2) refers to stdout.o(.data) for __stdout
    printf2.o(i.__0snprintf$2) refers to printf2.o(i._printf_core) for _printf_core
    printf2.o(i.__0snprintf$2) refers to printf2.o(i._snputc) for _snputc
    printf2.o(i.__0sprintf$2) refers to printf2.o(i._printf_core) for _printf_core
    printf2.o(i.__0sprintf$2) refers to printf2.o(i._sputc) for _sputc
    printf2.o(i.__0vfprintf$2) refers to printf2.o(i._printf_core) for _printf_core
    printf2.o(i.__0vfprintf$2) refers to fputc.o(i.fputc) for fputc
    printf2.o(i.__0vprintf$2) refers to printf2.o(i._printf_core) for _printf_core
    printf2.o(i.__0vprintf$2) refers to fputc.o(i.fputc) for fputc
    printf2.o(i.__0vprintf$2) refers to stdout.o(.data) for __stdout
    printf2.o(i.__0vsnprintf$2) refers to printf2.o(i._printf_core) for _printf_core
    printf2.o(i.__0vsnprintf$2) refers to printf2.o(i._snputc) for _snputc
    printf2.o(i.__0vsprintf$2) refers to printf2.o(i._printf_core) for _printf_core
    printf2.o(i.__0vsprintf$2) refers to printf2.o(i._sputc) for _sputc
    printf3.o(i.__0fprintf$3) refers to printf3.o(i._printf_core) for _printf_core
    printf3.o(i.__0fprintf$3) refers to fputc.o(i.fputc) for fputc
    printf3.o(i.__0printf$3) refers to printf3.o(i._printf_core) for _printf_core
    printf3.o(i.__0printf$3) refers to fputc.o(i.fputc) for fputc
    printf3.o(i.__0printf$3) refers to stdout.o(.data) for __stdout
    printf3.o(i.__0snprintf$3) refers to printf3.o(i._printf_core) for _printf_core
    printf3.o(i.__0snprintf$3) refers to printf3.o(i._snputc) for _snputc
    printf3.o(i.__0sprintf$3) refers to printf3.o(i._printf_core) for _printf_core
    printf3.o(i.__0sprintf$3) refers to printf3.o(i._sputc) for _sputc
    printf3.o(i.__0vfprintf$3) refers to printf3.o(i._printf_core) for _printf_core
    printf3.o(i.__0vfprintf$3) refers to fputc.o(i.fputc) for fputc
    printf3.o(i.__0vprintf$3) refers to printf3.o(i._printf_core) for _printf_core
    printf3.o(i.__0vprintf$3) refers to fputc.o(i.fputc) for fputc
    printf3.o(i.__0vprintf$3) refers to stdout.o(.data) for __stdout
    printf3.o(i.__0vsnprintf$3) refers to printf3.o(i._printf_core) for _printf_core
    printf3.o(i.__0vsnprintf$3) refers to printf3.o(i._snputc) for _snputc
    printf3.o(i.__0vsprintf$3) refers to printf3.o(i._printf_core) for _printf_core
    printf3.o(i.__0vsprintf$3) refers to printf3.o(i._sputc) for _sputc
    printf3.o(i._printf_core) refers to uidiv.o(.text) for __aeabi_uidivmod
    printf4.o(i.__0fprintf$4) refers to printf4.o(i._printf_core) for _printf_core
    printf4.o(i.__0fprintf$4) refers to fputc.o(i.fputc) for fputc
    printf4.o(i.__0printf$4) refers to printf4.o(i._printf_core) for _printf_core
    printf4.o(i.__0printf$4) refers to fputc.o(i.fputc) for fputc
    printf4.o(i.__0printf$4) refers to stdout.o(.data) for __stdout
    printf4.o(i.__0snprintf$4) refers to printf4.o(i._printf_core) for _printf_core
    printf4.o(i.__0snprintf$4) refers to printf4.o(i._snputc) for _snputc
    printf4.o(i.__0sprintf$4) refers to printf4.o(i._printf_core) for _printf_core
    printf4.o(i.__0sprintf$4) refers to printf4.o(i._sputc) for _sputc
    printf4.o(i.__0vfprintf$4) refers to printf4.o(i._printf_core) for _printf_core
    printf4.o(i.__0vfprintf$4) refers to fputc.o(i.fputc) for fputc
    printf4.o(i.__0vprintf$4) refers to printf4.o(i._printf_core) for _printf_core
    printf4.o(i.__0vprintf$4) refers to fputc.o(i.fputc) for fputc
    printf4.o(i.__0vprintf$4) refers to stdout.o(.data) for __stdout
    printf4.o(i.__0vsnprintf$4) refers to printf4.o(i._printf_core) for _printf_core
    printf4.o(i.__0vsnprintf$4) refers to printf4.o(i._snputc) for _snputc
    printf4.o(i.__0vsprintf$4) refers to printf4.o(i._printf_core) for _printf_core
    printf4.o(i.__0vsprintf$4) refers to printf4.o(i._sputc) for _sputc
    printf4.o(i._printf_core) refers to uldiv.o(.text) for __aeabi_uldivmod
    printf5.o(i.__0fprintf$5) refers to printf5.o(i._printf_core) for _printf_core
    printf5.o(i.__0fprintf$5) refers to fputc.o(i.fputc) for fputc
    printf5.o(i.__0printf$5) refers to printf5.o(i._printf_core) for _printf_core
    printf5.o(i.__0printf$5) refers to fputc.o(i.fputc) for fputc
    printf5.o(i.__0printf$5) refers to stdout.o(.data) for __stdout
    printf5.o(i.__0snprintf$5) refers to printf5.o(i._printf_core) for _printf_core
    printf5.o(i.__0snprintf$5) refers to printf5.o(i._snputc) for _snputc
    printf5.o(i.__0sprintf$5) refers to printf5.o(i._printf_core) for _printf_core
    printf5.o(i.__0sprintf$5) refers to printf5.o(i._sputc) for _sputc
    printf5.o(i.__0vfprintf$5) refers to printf5.o(i._printf_core) for _printf_core
    printf5.o(i.__0vfprintf$5) refers to fputc.o(i.fputc) for fputc
    printf5.o(i.__0vprintf$5) refers to printf5.o(i._printf_core) for _printf_core
    printf5.o(i.__0vprintf$5) refers to fputc.o(i.fputc) for fputc
    printf5.o(i.__0vprintf$5) refers to stdout.o(.data) for __stdout
    printf5.o(i.__0vsnprintf$5) refers to printf5.o(i._printf_core) for _printf_core
    printf5.o(i.__0vsnprintf$5) refers to printf5.o(i._snputc) for _snputc
    printf5.o(i.__0vsprintf$5) refers to printf5.o(i._printf_core) for _printf_core
    printf5.o(i.__0vsprintf$5) refers to printf5.o(i._sputc) for _sputc
    printf5.o(i._printf_core) refers to uldiv.o(.text) for __aeabi_uldivmod
    printf6.o(i.__0fprintf$6) refers to printf6.o(i._printf_core) for _printf_core
    printf6.o(i.__0fprintf$6) refers to fputc.o(i.fputc) for fputc
    printf6.o(i.__0printf$6) refers to printf6.o(i._printf_core) for _printf_core
    printf6.o(i.__0printf$6) refers to fputc.o(i.fputc) for fputc
    printf6.o(i.__0printf$6) refers to stdout.o(.data) for __stdout
    printf6.o(i.__0snprintf$6) refers to printf6.o(i._printf_core) for _printf_core
    printf6.o(i.__0snprintf$6) refers to printf6.o(i._snputc) for _snputc
    printf6.o(i.__0sprintf$6) refers to printf6.o(i._printf_core) for _printf_core
    printf6.o(i.__0sprintf$6) refers to printf6.o(i._sputc) for _sputc
    printf6.o(i.__0vfprintf$6) refers to printf6.o(i._printf_core) for _printf_core
    printf6.o(i.__0vfprintf$6) refers to fputc.o(i.fputc) for fputc
    printf6.o(i.__0vprintf$6) refers to printf6.o(i._printf_core) for _printf_core
    printf6.o(i.__0vprintf$6) refers to fputc.o(i.fputc) for fputc
    printf6.o(i.__0vprintf$6) refers to stdout.o(.data) for __stdout
    printf6.o(i.__0vsnprintf$6) refers to printf6.o(i._printf_core) for _printf_core
    printf6.o(i.__0vsnprintf$6) refers to printf6.o(i._snputc) for _snputc
    printf6.o(i.__0vsprintf$6) refers to printf6.o(i._printf_core) for _printf_core
    printf6.o(i.__0vsprintf$6) refers to printf6.o(i._sputc) for _sputc
    printf6.o(i._printf_core) refers to printf6.o(i._printf_pre_padding) for _printf_pre_padding
    printf6.o(i._printf_core) refers to printf6.o(i._printf_post_padding) for _printf_post_padding
    printf6.o(i._printf_core) refers to uidiv.o(.text) for __aeabi_uidivmod
    printf7.o(i.__0fprintf$7) refers to printf7.o(i._printf_core) for _printf_core
    printf7.o(i.__0fprintf$7) refers to fputc.o(i.fputc) for fputc
    printf7.o(i.__0printf$7) refers to printf7.o(i._printf_core) for _printf_core
    printf7.o(i.__0printf$7) refers to fputc.o(i.fputc) for fputc
    printf7.o(i.__0printf$7) refers to stdout.o(.data) for __stdout
    printf7.o(i.__0snprintf$7) refers to printf7.o(i._printf_core) for _printf_core
    printf7.o(i.__0snprintf$7) refers to printf7.o(i._snputc) for _snputc
    printf7.o(i.__0sprintf$7) refers to printf7.o(i._printf_core) for _printf_core
    printf7.o(i.__0sprintf$7) refers to printf7.o(i._sputc) for _sputc
    printf7.o(i.__0vfprintf$7) refers to printf7.o(i._printf_core) for _printf_core
    printf7.o(i.__0vfprintf$7) refers to fputc.o(i.fputc) for fputc
    printf7.o(i.__0vprintf$7) refers to printf7.o(i._printf_core) for _printf_core
    printf7.o(i.__0vprintf$7) refers to fputc.o(i.fputc) for fputc
    printf7.o(i.__0vprintf$7) refers to stdout.o(.data) for __stdout
    printf7.o(i.__0vsnprintf$7) refers to printf7.o(i._printf_core) for _printf_core
    printf7.o(i.__0vsnprintf$7) refers to printf7.o(i._snputc) for _snputc
    printf7.o(i.__0vsprintf$7) refers to printf7.o(i._printf_core) for _printf_core
    printf7.o(i.__0vsprintf$7) refers to printf7.o(i._sputc) for _sputc
    printf7.o(i._printf_core) refers to printf7.o(i._printf_pre_padding) for _printf_pre_padding
    printf7.o(i._printf_core) refers to printf7.o(i._printf_post_padding) for _printf_post_padding
    printf7.o(i._printf_core) refers to uldiv.o(.text) for __aeabi_uldivmod
    printf8.o(i.__0fprintf$8) refers to printf8.o(i._printf_core) for _printf_core
    printf8.o(i.__0fprintf$8) refers to fputc.o(i.fputc) for fputc
    printf8.o(i.__0printf$8) refers to printf8.o(i._printf_core) for _printf_core
    printf8.o(i.__0printf$8) refers to fputc.o(i.fputc) for fputc
    printf8.o(i.__0printf$8) refers to stdout.o(.data) for __stdout
    printf8.o(i.__0snprintf$8) refers to printf8.o(i._printf_core) for _printf_core
    printf8.o(i.__0snprintf$8) refers to printf8.o(i._snputc) for _snputc
    printf8.o(i.__0sprintf$8) refers to printf8.o(i._printf_core) for _printf_core
    printf8.o(i.__0sprintf$8) refers to printf8.o(i._sputc) for _sputc
    printf8.o(i.__0vfprintf$8) refers to printf8.o(i._printf_core) for _printf_core
    printf8.o(i.__0vfprintf$8) refers to fputc.o(i.fputc) for fputc
    printf8.o(i.__0vprintf$8) refers to printf8.o(i._printf_core) for _printf_core
    printf8.o(i.__0vprintf$8) refers to fputc.o(i.fputc) for fputc
    printf8.o(i.__0vprintf$8) refers to stdout.o(.data) for __stdout
    printf8.o(i.__0vsnprintf$8) refers to printf8.o(i._printf_core) for _printf_core
    printf8.o(i.__0vsnprintf$8) refers to printf8.o(i._snputc) for _snputc
    printf8.o(i.__0vsprintf$8) refers to printf8.o(i._printf_core) for _printf_core
    printf8.o(i.__0vsprintf$8) refers to printf8.o(i._sputc) for _sputc
    printf8.o(i._printf_core) refers to printf8.o(i._printf_pre_padding) for _printf_pre_padding
    printf8.o(i._printf_core) refers to printf8.o(i._printf_post_padding) for _printf_post_padding
    printf8.o(i._printf_core) refers to uldiv.o(.text) for __aeabi_uldivmod
    printfa.o(i.__0fprintf) refers (Special) to iusefp.o(.text) for __I$use$fp
    printfa.o(i.__0fprintf) refers to printfa.o(i._printf_core) for _printf_core
    printfa.o(i.__0fprintf) refers to fputc.o(i.fputc) for fputc
    printfa.o(i.__0printf) refers (Special) to iusefp.o(.text) for __I$use$fp
    printfa.o(i.__0printf) refers to printfa.o(i._printf_core) for _printf_core
    printfa.o(i.__0printf) refers to fputc.o(i.fputc) for fputc
    printfa.o(i.__0printf) refers to stdout.o(.data) for __stdout
    printfa.o(i.__0snprintf) refers (Special) to iusefp.o(.text) for __I$use$fp
    printfa.o(i.__0snprintf) refers to printfa.o(i._printf_core) for _printf_core
    printfa.o(i.__0snprintf) refers to printfa.o(i._snputc) for _snputc
    printfa.o(i.__0sprintf) refers (Special) to iusefp.o(.text) for __I$use$fp
    printfa.o(i.__0sprintf) refers to printfa.o(i._printf_core) for _printf_core
    printfa.o(i.__0sprintf) refers to printfa.o(i._sputc) for _sputc
    printfa.o(i.__0vfprintf) refers (Special) to iusefp.o(.text) for __I$use$fp
    printfa.o(i.__0vfprintf) refers to printfa.o(i._printf_core) for _printf_core
    printfa.o(i.__0vfprintf) refers to fputc.o(i.fputc) for fputc
    printfa.o(i.__0vprintf) refers (Special) to iusefp.o(.text) for __I$use$fp
    printfa.o(i.__0vprintf) refers to printfa.o(i._printf_core) for _printf_core
    printfa.o(i.__0vprintf) refers to fputc.o(i.fputc) for fputc
    printfa.o(i.__0vprintf) refers to stdout.o(.data) for __stdout
    printfa.o(i.__0vsnprintf) refers (Special) to iusefp.o(.text) for __I$use$fp
    printfa.o(i.__0vsnprintf) refers to printfa.o(i._printf_core) for _printf_core
    printfa.o(i.__0vsnprintf) refers to printfa.o(i._snputc) for _snputc
    printfa.o(i.__0vsprintf) refers (Special) to iusefp.o(.text) for __I$use$fp
    printfa.o(i.__0vsprintf) refers to printfa.o(i._printf_core) for _printf_core
    printfa.o(i.__0vsprintf) refers to printfa.o(i._sputc) for _sputc
    printfa.o(i._fp_digits) refers (Special) to iusefp.o(.text) for __I$use$fp
    printfa.o(i._fp_digits) refers to dmul.o(.text) for __aeabi_dmul
    printfa.o(i._fp_digits) refers to ddiv.o(.text) for __aeabi_ddiv
    printfa.o(i._fp_digits) refers to cdrcmple.o(.text) for __aeabi_cdrcmple
    printfa.o(i._fp_digits) refers to dadd.o(.text) for __aeabi_dadd
    printfa.o(i._fp_digits) refers to dfixul.o(.text) for __aeabi_d2ulz
    printfa.o(i._fp_digits) refers to uldiv.o(.text) for __aeabi_uldivmod
    printfa.o(i._printf_core) refers (Special) to iusefp.o(.text) for __I$use$fp
    printfa.o(i._printf_core) refers to printfa.o(i._printf_pre_padding) for _printf_pre_padding
    printfa.o(i._printf_core) refers to uldiv.o(.text) for __aeabi_uldivmod
    printfa.o(i._printf_core) refers to printfa.o(i._printf_post_padding) for _printf_post_padding
    printfa.o(i._printf_core) refers to printfa.o(i._fp_digits) for _fp_digits
    printfa.o(i._printf_core) refers to uidiv.o(.text) for __aeabi_uidivmod
    printfa.o(i._printf_post_padding) refers (Special) to iusefp.o(.text) for __I$use$fp
    printfa.o(i._printf_pre_padding) refers (Special) to iusefp.o(.text) for __I$use$fp
    printfa.o(i._snputc) refers (Special) to iusefp.o(.text) for __I$use$fp
    printfa.o(i._sputc) refers (Special) to iusefp.o(.text) for __I$use$fp
    __0sscanf.o(.text) refers to scanf_char.o(.text) for __vfscanf_char
    __0sscanf.o(.text) refers to _sgetc.o(.text) for _sgetc
    _scanf_int.o(.text) refers to _chval.o(.text) for _chval
    scanf_fp.o(.text) refers (Special) to iusefp.o(.text) for __I$use$fp
    scanf_fp.o(.text) refers to llmul.o(.text) for __aeabi_lmul
    scanf_fp.o(.text) refers to dfltul.o(.text) for __aeabi_ul2d
    scanf_fp.o(.text) refers to dmul.o(.text) for __aeabi_dmul
    scanf_fp.o(.text) refers to ddiv.o(.text) for __aeabi_ddiv
    scanf_fp.o(.text) refers to scanf_fp.o(i._is_digit) for _is_digit
    scanf_fp.o(.text) refers to d2f.o(.text) for __aeabi_d2f
    strtol.o(.text) refers to ctype_o.o(.text) for __rt_ctype_table
    strtol.o(.text) refers to _strtoul.o(.text) for _strtoul
    strtol.o(.text) refers to errno.o(i.__aeabi_errno_addr) for __aeabi_errno_addr
    fadd.o(.text) refers (Special) to iusefp.o(.text) for __I$use$fp
    fadd.o(.text) refers to fepilogue.o(.text) for _float_epilogue
    fmul.o(.text) refers (Special) to iusefp.o(.text) for __I$use$fp
    fdiv.o(.text) refers (Special) to iusefp.o(.text) for __I$use$fp
    fdiv.o(.text) refers to fepilogue.o(.text) for _float_round
    dadd.o(.text) refers (Special) to iusefp.o(.text) for __I$use$fp
    dadd.o(.text) refers to llshl.o(.text) for __aeabi_llsl
    dadd.o(.text) refers to llsshr.o(.text) for __aeabi_lasr
    dadd.o(.text) refers to depilogue.o(.text) for _double_epilogue
    dmul.o(.text) refers (Special) to iusefp.o(.text) for __I$use$fp
    dmul.o(.text) refers to depilogue.o(.text) for _double_epilogue
    ddiv.o(.text) refers (Special) to iusefp.o(.text) for __I$use$fp
    ddiv.o(.text) refers to depilogue.o(.text) for _double_round
    fflti.o(.text) refers (Special) to iusefp.o(.text) for __I$use$fp
    fflti.o(.text) refers to fepilogue.o(.text) for _float_epilogue
    ffltui.o(.text) refers (Special) to iusefp.o(.text) for __I$use$fp
    ffltui.o(.text) refers to fepilogue.o(.text) for _float_epilogue
    dfltui.o(.text) refers (Special) to iusefp.o(.text) for __I$use$fp
    dfltui.o(.text) refers to depilogue.o(.text) for _double_epilogue
    ffixui.o(.text) refers (Special) to iusefp.o(.text) for __I$use$fp
    dfixui.o(.text) refers (Special) to iusefp.o(.text) for __I$use$fp
    dfixui.o(.text) refers to llushr.o(.text) for __aeabi_llsr
    f2d.o(.text) refers (Special) to iusefp.o(.text) for __I$use$fp
    cdcmple.o(.text) refers (Special) to iusefp.o(.text) for __I$use$fp
    cdrcmple.o(.text) refers (Special) to iusefp.o(.text) for __I$use$fp
    d2f.o(.text) refers (Special) to iusefp.o(.text) for __I$use$fp
    d2f.o(.text) refers to fepilogue.o(.text) for _float_round
    cfcmple.o(.text) refers (Special) to iusefp.o(.text) for __I$use$fp
    cfrcmple.o(.text) refers (Special) to iusefp.o(.text) for __I$use$fp
    entry2.o(.ARM.Collect$$$$00000001) refers to entry2.o(.ARM.Collect$$$$00002712) for __lit__00000000
    entry2.o(__vectab_stack_and_reset_area) refers to entry.o(.ARM.Collect$$$$00000000) for __main
    entry5.o(.ARM.Collect$$$$00000004) refers to init.o(.text) for __scatterload
    entry9a.o(.ARM.Collect$$$$0000000B) refers to project_main.o(.text) for main
    entry9b.o(.ARM.Collect$$$$0000000C) refers to project_main.o(.text) for main
    fputc.o(i.fputc) refers (Special) to iusesemip.o(.text) for __I$use$semihosting$fputc
    fputc.o(i.fputc) refers (Special) to semi.o(.text) for __semihosting_library_function
    uldiv.o(.text) refers to llushr.o(.text) for __aeabi_llsr
    uldiv.o(.text) refers to llshl.o(.text) for __aeabi_llsl
    llmul.o(.text) refers to llshl.o(.text) for __aeabi_llsl
    errno.o(i.__aeabi_errno_addr) refers to errno.o(.data) for .data
    errno.o(i.__read_errno) refers to errno.o(.data) for .data
    errno.o(i.__set_errno) refers to errno.o(.data) for .data
    scanf_char.o(.text) refers to _scanf.o(.text) for __vfscanf
    scanf_char.o(.text) refers to isspace_o.o(.text) for isspace
    _strtoul.o(.text) refers to _chval.o(.text) for _chval
    _strtoul.o(.text) refers to errno.o(i.__aeabi_errno_addr) for __aeabi_errno_addr
    strtod.o(.text) refers to scanf_fp.o(.text) for _scanf_real
    strtod.o(.text) refers to _sgetc.o(.text) for _sgetc
    strtod.o(.text) refers to isspace_o.o(.text) for isspace
    depilogue.o(.text) refers to depilogue.o(i.__ARM_clz) for __ARM_clz
    depilogue.o(.text) refers to llshl.o(.text) for __aeabi_llsl
    depilogue.o(.text) refers to llushr.o(.text) for __aeabi_llsr
    dfltul.o(.text) refers to depilogue.o(.text) for _double_epilogue
    dfixul.o(.text) refers to llushr.o(.text) for __aeabi_llsr
    dfixul.o(.text) refers to llshl.o(.text) for __aeabi_llsl
    init.o(.text) refers to entry5.o(.ARM.Collect$$$$00000004) for __main_after_scatterload
    isspace_c.o(.text) refers to ctype_c.o(.text) for __ctype_lookup
    _scanf.o(.text) refers (Weak) to scanf_fp.o(.text) for _scanf_real
    _scanf.o(.text) refers (Weak) to _scanf_int.o(.text) for _scanf_int
    _scanf.o(.text) refers (Weak) to _scanf_str.o(.text) for _scanf_string
    ctype_c.o(.text) refers to ctype_c.o(.constdata) for .constdata
    usbcore.o(i.USB_ReqGetStatus) refers to usbcore.o(.data) for SetupPacket
    usbcore.o(i.USB_ReqGetStatus) refers to usbcore.o(.bss) for EP0Buf
    usbcore.o(i.USB_ReqSetClrFeature) refers to usbhw.o(.text) for USB_WakeUpCfg
    usbcore.o(i.USB_ReqSetClrFeature) refers to usbcore.o(.data) for SetupPacket
    usbcore.o(i.USB_ReqGetDescriptor) refers to usbcore.o(.data) for SetupPacket
    usbcore.o(i.USB_ReqGetDescriptor) refers to usbdesc.o(.constdata) for USB_DeviceDescriptor
    usbcore.o(i.USB_ReqSetConfiguration) refers to usbhw.o(.text) for USB_DisableEP
    usbcore.o(i.USB_ReqSetConfiguration) refers to usbcore.o(.data) for SetupPacket
    usbcore.o(i.USB_ReqSetConfiguration) refers to usbdesc.o(.constdata) for USB_ConfigDescriptor
    usbcore.o(i.USB_ReqSetInterface) refers to usbhw.o(.text) for USB_ConfigEP
    usbcore.o(i.USB_ReqSetInterface) refers to usbcore.o(.data) for SetupPacket
    usbcore.o(i.USB_ReqSetInterface) refers to usbdesc.o(.constdata) for USB_ConfigDescriptor
    scanf_fp.o(i._is_digit) refers (Special) to iusefp.o(.text) for __I$use$fp


==============================================================================

Removing Unused input sections from the image.

    Removing project_main.o(.rev16_text), (4 bytes).
    Removing project_main.o(.revsh_text), (4 bytes).
    Removing app.o(.rev16_text), (4 bytes).
    Removing app.o(.revsh_text), (4 bytes).
    Removing app.o(.text), (2 bytes).
    Removing power_management.o(.rev16_text), (4 bytes).
    Removing power_management.o(.revsh_text), (4 bytes).
    Removing gsm_gprs_tasks.o(.rev16_text), (4 bytes).
    Removing gsm_gprs_tasks.o(.revsh_text), (4 bytes).
    Removing sos_tasks.o(.rev16_text), (4 bytes).
    Removing sos_tasks.o(.revsh_text), (4 bytes).
    Removing io_tasks.o(.rev16_text), (4 bytes).
    Removing io_tasks.o(.revsh_text), (4 bytes).
    Removing upload_config_task.o(.rev16_text), (4 bytes).
    Removing upload_config_task.o(.revsh_text), (4 bytes).
    Removing gps_task.o(.rev16_text), (4 bytes).
    Removing gps_task.o(.revsh_text), (4 bytes).
    Removing start.o(.rev16_text), (4 bytes).
    Removing start.o(.revsh_text), (4 bytes).
    Removing sysinit.o(.rev16_text), (4 bytes).
    Removing sysinit.o(.revsh_text), (4 bytes).
    Removing system_mkl25z4.o(.rev16_text), (4 bytes).
    Removing system_mkl25z4.o(.revsh_text), (4 bytes).
    Removing nmi_isr_handler.o(.rev16_text), (4 bytes).
    Removing nmi_isr_handler.o(.revsh_text), (4 bytes).
    Removing startup_mkl25z4.o(STACK), (2048 bytes).
    Removing startup_mkl25z4.o(HEAP), (0 bytes).
    Removing llwu.o(.rev16_text), (4 bytes).
    Removing llwu.o(.revsh_text), (4 bytes).
    Removing mcg.o(.rev16_text), (4 bytes).
    Removing mcg.o(.revsh_text), (4 bytes).
    Removing mcg.o(.data), (2 bytes).
    Removing rcm.o(.rev16_text), (4 bytes).
    Removing rcm.o(.revsh_text), (4 bytes).
    Removing smc.o(.rev16_text), (4 bytes).
    Removing smc.o(.revsh_text), (4 bytes).
    Removing uart.o(.rev16_text), (4 bytes).
    Removing uart.o(.revsh_text), (4 bytes).
    Removing fmc.o(.rev16_text), (4 bytes).
    Removing fmc.o(.revsh_text), (4 bytes).
    Removing fmc.o(.text), (272 bytes).
    Removing spi.o(.rev16_text), (4 bytes).
    Removing spi.o(.revsh_text), (4 bytes).
    Removing hal_i2c.o(.rev16_text), (4 bytes).
    Removing hal_i2c.o(.revsh_text), (4 bytes).
    Removing hal_i2c.o(.text), (224 bytes).
    Removing flash_ftfa.o(.rev16_text), (4 bytes).
    Removing flash_ftfa.o(.revsh_text), (4 bytes).
    Removing flash_ramfunc.o(.rev16_text), (4 bytes).
    Removing flash_ramfunc.o(.revsh_text), (4 bytes).
    Removing usbcore.o(.rev16_text), (4 bytes).
    Removing usbcore.o(.revsh_text), (4 bytes).
    Removing usbhw.o(.rev16_text), (4 bytes).
    Removing usbhw.o(.revsh_text), (4 bytes).
    Removing usbuser.o(.rev16_text), (4 bytes).
    Removing usbuser.o(.revsh_text), (4 bytes).
    Removing hiduser.o(.rev16_text), (4 bytes).
    Removing hiduser.o(.revsh_text), (4 bytes).
    Removing sst25.o(.rev16_text), (4 bytes).
    Removing sst25.o(.revsh_text), (4 bytes).
    Removing modem.o(.rev16_text), (4 bytes).
    Removing modem.o(.revsh_text), (4 bytes).
    Removing at_command_parser.o(.rev16_text), (4 bytes).
    Removing at_command_parser.o(.revsh_text), (4 bytes).
    Removing system_config.o(.rev16_text), (4 bytes).
    Removing system_config.o(.revsh_text), (4 bytes).
    Removing db.o(.rev16_text), (4 bytes).
    Removing db.o(.revsh_text), (4 bytes).
    Removing tracker.o(.rev16_text), (4 bytes).
    Removing tracker.o(.revsh_text), (4 bytes).
    Removing gprs_cmd_ctrl.o(.rev16_text), (4 bytes).
    Removing gprs_cmd_ctrl.o(.revsh_text), (4 bytes).
    Removing tick.o(.rev16_text), (4 bytes).
    Removing tick.o(.revsh_text), (4 bytes).
    Removing dbg_cfg_app.o(.rev16_text), (4 bytes).
    Removing dbg_cfg_app.o(.revsh_text), (4 bytes).
    Removing flash_mem.o(.rev16_text), (4 bytes).
    Removing flash_mem.o(.revsh_text), (4 bytes).
    Removing audio.o(.rev16_text), (4 bytes).
    Removing audio.o(.revsh_text), (4 bytes).
    Removing dtmf_app.o(.rev16_text), (4 bytes).
    Removing dtmf_app.o(.revsh_text), (4 bytes).
    Removing dtmf.o(.rev16_text), (4 bytes).
    Removing dtmf.o(.revsh_text), (4 bytes).
    Removing xl362_io.o(.rev16_text), (4 bytes).
    Removing xl362_io.o(.revsh_text), (4 bytes).
    Removing pedometer_task.o(.rev16_text), (4 bytes).
    Removing pedometer_task.o(.revsh_text), (4 bytes).

88 unused section(s) (total 2876 bytes) removed from the image.

==============================================================================

Adding Veneers to the image

    Adding TT veneer (12 bytes, Long) for call to 'SpSub' from flash_ftfa.o(.text).

1 Veneer(s) (total 12 bytes) added to the image.

==============================================================================

Image Symbol Table

    Local Symbols

    Symbol Name                              Value     Ov Type        Size  Object(Section)

    RESET                                    0x00000000   Section     1024  startup_mkl25z4.o(RESET)
    ../clib/../cmprslib/zerorunl.c           0x00000000   Number         0  __dczerorl.o ABSOLUTE
    ../clib/microlib/ctype/ctype.c           0x00000000   Number         0  ctype_c.o ABSOLUTE
    ../clib/microlib/ctype/ctype.c           0x00000000   Number         0  ctype_o.o ABSOLUTE
    ../clib/microlib/ctype/ctype.c           0x00000000   Number         0  isdigit_o.o ABSOLUTE
    ../clib/microlib/ctype/ctype.c           0x00000000   Number         0  islower_o.o ABSOLUTE
    ../clib/microlib/ctype/ctype.c           0x00000000   Number         0  ispunct_o.o ABSOLUTE
    ../clib/microlib/ctype/ctype.c           0x00000000   Number         0  isupper_o.o ABSOLUTE
    ../clib/microlib/ctype/ctype.c           0x00000000   Number         0  isspace_o.o ABSOLUTE
    ../clib/microlib/ctype/ctype.c           0x00000000   Number         0  isprint_o.o ABSOLUTE
    ../clib/microlib/ctype/ctype.c           0x00000000   Number         0  isxdigit_o.o ABSOLUTE
    ../clib/microlib/ctype/ctype.c           0x00000000   Number         0  isspace_c.o ABSOLUTE
    ../clib/microlib/ctype/ctype.c           0x00000000   Number         0  iscntrl_o.o ABSOLUTE
    ../clib/microlib/ctype/ctype.c           0x00000000   Number         0  isblank_o.o ABSOLUTE
    ../clib/microlib/ctype/ctype.c           0x00000000   Number         0  isalpha_o.o ABSOLUTE
    ../clib/microlib/ctype/ctype.c           0x00000000   Number         0  isalnum_o.o ABSOLUTE
    ../clib/microlib/ctype/ctype.c           0x00000000   Number         0  isgraph_o.o ABSOLUTE
    ../clib/microlib/division.c              0x00000000   Number         0  uidiv.o ABSOLUTE
    ../clib/microlib/division.c              0x00000000   Number         0  idiv.o ABSOLUTE
    ../clib/microlib/division.c              0x00000000   Number         0  uldiv.o ABSOLUTE
    ../clib/microlib/errno.c                 0x00000000   Number         0  errno.o ABSOLUTE
    ../clib/microlib/init/entry.s            0x00000000   Number         0  entry7b.o ABSOLUTE
    ../clib/microlib/init/entry.s            0x00000000   Number         0  entry2.o ABSOLUTE
    ../clib/microlib/init/entry.s            0x00000000   Number         0  entry7a.o ABSOLUTE
    ../clib/microlib/init/entry.s            0x00000000   Number         0  entry5.o ABSOLUTE
    ../clib/microlib/init/entry.s            0x00000000   Number         0  entry8b.o ABSOLUTE
    ../clib/microlib/init/entry.s            0x00000000   Number         0  entry9a.o ABSOLUTE
    ../clib/microlib/init/entry.s            0x00000000   Number         0  entry9b.o ABSOLUTE
    ../clib/microlib/init/entry.s            0x00000000   Number         0  entry10a.o ABSOLUTE
    ../clib/microlib/init/entry.s            0x00000000   Number         0  entry10b.o ABSOLUTE
    ../clib/microlib/init/entry.s            0x00000000   Number         0  entry.o ABSOLUTE
    ../clib/microlib/init/entry.s            0x00000000   Number         0  entry11b.o ABSOLUTE
    ../clib/microlib/init/entry.s            0x00000000   Number         0  entry11a.o ABSOLUTE
    ../clib/microlib/init/entry.s            0x00000000   Number         0  entry8a.o ABSOLUTE
    ../clib/microlib/longlong.c              0x00000000   Number         0  llshl.o ABSOLUTE
    ../clib/microlib/longlong.c              0x00000000   Number         0  llsshr.o ABSOLUTE
    ../clib/microlib/longlong.c              0x00000000   Number         0  llushr.o ABSOLUTE
    ../clib/microlib/longlong.c              0x00000000   Number         0  llmul.o ABSOLUTE
    ../clib/microlib/printf/printf.c         0x00000000   Number         0  printf0.o ABSOLUTE
    ../clib/microlib/printf/printf.c         0x00000000   Number         0  printfb.o ABSOLUTE
    ../clib/microlib/printf/printf.c         0x00000000   Number         0  printf4.o ABSOLUTE
    ../clib/microlib/printf/printf.c         0x00000000   Number         0  printf5.o ABSOLUTE
    ../clib/microlib/printf/printf.c         0x00000000   Number         0  printf3.o ABSOLUTE
    ../clib/microlib/printf/printf.c         0x00000000   Number         0  printf2.o ABSOLUTE
    ../clib/microlib/printf/printf.c         0x00000000   Number         0  printfa.o ABSOLUTE
    ../clib/microlib/printf/printf.c         0x00000000   Number         0  printf8.o ABSOLUTE
    ../clib/microlib/printf/printf.c         0x00000000   Number         0  printf1.o ABSOLUTE
    ../clib/microlib/printf/printf.c         0x00000000   Number         0  printf7.o ABSOLUTE
    ../clib/microlib/printf/printf.c         0x00000000   Number         0  printf6.o ABSOLUTE
    ../clib/microlib/printf/stubs.s          0x00000000   Number         0  stubs.o ABSOLUTE
    ../clib/microlib/stdio/fputc.c           0x00000000   Number         0  fputc.o ABSOLUTE
    ../clib/microlib/stdio/semi.s            0x00000000   Number         0  semi.o ABSOLUTE
    ../clib/microlib/stdio/streams.c         0x00000000   Number         0  stdout.o ABSOLUTE
    ../clib/microlib/string/memchr.c         0x00000000   Number         0  memchr.o ABSOLUTE
    ../clib/microlib/string/memcmp.c         0x00000000   Number         0  memcmp.o ABSOLUTE
    ../clib/microlib/string/memcpy.c         0x00000000   Number         0  memcpya.o ABSOLUTE
    ../clib/microlib/string/memcpy.c         0x00000000   Number         0  memcpyb.o ABSOLUTE
    ../clib/microlib/string/memset.c         0x00000000   Number         0  memseta.o ABSOLUTE
    ../clib/microlib/string/strcat.c         0x00000000   Number         0  strcat.o ABSOLUTE
    ../clib/microlib/string/strcmp.c         0x00000000   Number         0  strcmp.o ABSOLUTE
    ../clib/microlib/string/strcpy.c         0x00000000   Number         0  strcpy.o ABSOLUTE
    ../clib/microlib/string/strlen.c         0x00000000   Number         0  strlen.o ABSOLUTE
    ../clib/microlib/string/strstr.c         0x00000000   Number         0  strstr.o ABSOLUTE
    ../clib/microlib/stubs.s                 0x00000000   Number         0  iusefp.o ABSOLUTE
    ../clib/microlib/stubs.s                 0x00000000   Number         0  iusesemip.o ABSOLUTE
    ../clib/microlib/unhosted.c              0x00000000   Number         0  uread4.o ABSOLUTE
    ../clib/microlib/unhosted.c              0x00000000   Number         0  uwrite8.o ABSOLUTE
    ../clib/microlib/unhosted.c              0x00000000   Number         0  uwrite4.o ABSOLUTE
    ../clib/microlib/unhosted.c              0x00000000   Number         0  uread8.o ABSOLUTE
    ../clib/scanf.c                          0x00000000   Number         0  _scanf_int.o ABSOLUTE
    ../clib/scanf.c                          0x00000000   Number         0  __0sscanf.o ABSOLUTE
    ../clib/scanf.c                          0x00000000   Number         0  _chval.o ABSOLUTE
    ../clib/scanf.c                          0x00000000   Number         0  scanf_char.o ABSOLUTE
    ../clib/scanf.c                          0x00000000   Number         0  _sgetc.o ABSOLUTE
    ../clib/scanf.c                          0x00000000   Number         0  _strtoul.o ABSOLUTE
    ../clib/scanf.c                          0x00000000   Number         0  _scanf_str.o ABSOLUTE
    ../clib/scanf.c                          0x00000000   Number         0  strtod.o ABSOLUTE
    ../clib/scanf.c                          0x00000000   Number         0  _scanf.o ABSOLUTE
    ../clib/scanf.c                          0x00000000   Number         0  strtol.o ABSOLUTE
    ../clib/scanf.c                          0x00000000   Number         0  scanf_fp.o ABSOLUTE
    ../fplib/microlib/d2f.c                  0x00000000   Number         0  d2f.o ABSOLUTE
    ../fplib/microlib/f2d.c                  0x00000000   Number         0  f2d.o ABSOLUTE
    ../fplib/microlib/fpadd.c                0x00000000   Number         0  fadd.o ABSOLUTE
    ../fplib/microlib/fpadd.c                0x00000000   Number         0  dadd.o ABSOLUTE
    ../fplib/microlib/fpdiv.c                0x00000000   Number         0  fdiv.o ABSOLUTE
    ../fplib/microlib/fpdiv.c                0x00000000   Number         0  ddiv.o ABSOLUTE
    ../fplib/microlib/fpepilogue.c           0x00000000   Number         0  depilogue.o ABSOLUTE
    ../fplib/microlib/fpepilogue.c           0x00000000   Number         0  fepilogue.o ABSOLUTE
    ../fplib/microlib/fpfix.c                0x00000000   Number         0  dfixui.o ABSOLUTE
    ../fplib/microlib/fpfix.c                0x00000000   Number         0  dfixul.o ABSOLUTE
    ../fplib/microlib/fpfix.c                0x00000000   Number         0  ffixui.o ABSOLUTE
    ../fplib/microlib/fpflt.c                0x00000000   Number         0  dfltui.o ABSOLUTE
    ../fplib/microlib/fpflt.c                0x00000000   Number         0  ffltui.o ABSOLUTE
    ../fplib/microlib/fpflt.c                0x00000000   Number         0  fflti.o ABSOLUTE
    ../fplib/microlib/fpflt.c                0x00000000   Number         0  dfltul.o ABSOLUTE
    ../fplib/microlib/fpmul.c                0x00000000   Number         0  dmul.o ABSOLUTE
    ../fplib/microlib/fpmul.c                0x00000000   Number         0  fmul.o ABSOLUTE
    ../mathlib/floor.c                       0x00000000   Number         0  floor.o ABSOLUTE
    ../mathlib/strtod.c                      0x00000000   Number         0  strtod.o ABSOLUTE
    ..\..\..\src\FATFS\ff9b\src\diskio.c     0x00000000   Number         0  diskio.o ABSOLUTE
    ..\..\..\src\FATFS\ff9b\src\ff.c         0x00000000   Number         0  ff.o ABSOLUTE
    ..\..\..\src\FATFS\ff9b\src\flash_mem.c  0x00000000   Number         0  flash_mem.o ABSOLUTE
    ..\..\..\src\Libraries\common_lib\acclerometer\xl362_io.c 0x00000000   Number         0  xl362_io.o ABSOLUTE
    ..\..\..\src\Libraries\common_lib\flash_mem\sst25.c 0x00000000   Number         0  sst25.o ABSOLUTE
    ..\..\..\src\Libraries\common_lib\gps\gps.c 0x00000000   Number         0  gps.o ABSOLUTE
    ..\..\..\src\Libraries\common_lib\gsm_modem\modem.c 0x00000000   Number         0  modem.o ABSOLUTE
    ..\..\..\src\Libraries\common_lib\pedometer\ambo_pedometer.c 0x00000000   Number         0  ambo_pedometer.o ABSOLUTE
    ..\..\..\src\Libraries\common_lib\pedometer\pedometer_task.c 0x00000000   Number         0  pedometer_task.o ABSOLUTE
    ..\..\..\src\Libraries\common_lib\ringbuff\ringbuf.c 0x00000000   Number         0  ringbuf.o ABSOLUTE
    ..\..\..\src\Libraries\common_lib\string_parser\string_parser.c 0x00000000   Number         0  string_parser.o ABSOLUTE
    ..\..\..\src\Libraries\common_lib\sys_time\m_time.c 0x00000000   Number         0  m_time.o ABSOLUTE
    ..\..\..\src\Libraries\common_lib\sys_time\sys_time.c 0x00000000   Number         0  sys_time.o ABSOLUTE
    ..\..\..\src\cpu\nmi_isr_handler.c       0x00000000   Number         0  nmi_isr_handler.o ABSOLUTE
    ..\..\..\src\cpu\start.c                 0x00000000   Number         0  start.o ABSOLUTE
    ..\..\..\src\cpu\startup_MKL25Z4.s       0x00000000   Number         0  startup_mkl25z4.o ABSOLUTE
    ..\..\..\src\cpu\sysinit.c               0x00000000   Number         0  sysinit.o ABSOLUTE
    ..\..\..\src\cpu\system_MKL25Z4.c        0x00000000   Number         0  system_mkl25z4.o ABSOLUTE
    ..\..\..\src\drivers\FTFA\flash_FTFA.c   0x00000000   Number         0  flash_ftfa.o ABSOLUTE
    ..\..\..\src\drivers\FTFA\flash_ramFunc.c 0x00000000   Number         0  flash_ramfunc.o ABSOLUTE
    ..\..\..\src\drivers\flash\fmc.c         0x00000000   Number         0  fmc.o ABSOLUTE
    ..\..\..\src\drivers\i2c\hal_i2c.c       0x00000000   Number         0  hal_i2c.o ABSOLUTE
    ..\..\..\src\drivers\llwu\llwu.c         0x00000000   Number         0  llwu.o ABSOLUTE
    ..\..\..\src\drivers\mcg\mcg.c           0x00000000   Number         0  mcg.o ABSOLUTE
    ..\..\..\src\drivers\rcm\rcm.c           0x00000000   Number         0  rcm.o ABSOLUTE
    ..\..\..\src\drivers\smc\smc.c           0x00000000   Number         0  smc.o ABSOLUTE
    ..\..\..\src\drivers\spi\spi.c           0x00000000   Number         0  spi.o ABSOLUTE
    ..\..\..\src\drivers\tick\tick.c         0x00000000   Number         0  tick.o ABSOLUTE
    ..\..\..\src\drivers\uart\uart.c         0x00000000   Number         0  uart.o ABSOLUTE
    ..\..\..\src\drivers\usb\hiduser.c       0x00000000   Number         0  hiduser.o ABSOLUTE
    ..\..\..\src\drivers\usb\usbcore.c       0x00000000   Number         0  usbcore.o ABSOLUTE
    ..\..\..\src\drivers\usb\usbhw.c         0x00000000   Number         0  usbhw.o ABSOLUTE
    ..\..\..\src\projects\project_main\DTMF.c 0x00000000   Number         0  dtmf.o ABSOLUTE
    ..\..\..\src\projects\project_main\DTMF_app.c 0x00000000   Number         0  dtmf_app.o ABSOLUTE
    ..\..\..\src\projects\project_main\app.c 0x00000000   Number         0  app.o ABSOLUTE
    ..\..\..\src\projects\project_main\at_command_parser.c 0x00000000   Number         0  at_command_parser.o ABSOLUTE
    ..\..\..\src\projects\project_main\audio.c 0x00000000   Number         0  audio.o ABSOLUTE
    ..\..\..\src\projects\project_main\db.c  0x00000000   Number         0  db.o ABSOLUTE
    ..\..\..\src\projects\project_main\dbg_cfg_app.c 0x00000000   Number         0  dbg_cfg_app.o ABSOLUTE
    ..\..\..\src\projects\project_main\gprs_cmd_ctrl.c 0x00000000   Number         0  gprs_cmd_ctrl.o ABSOLUTE
    ..\..\..\src\projects\project_main\gps_task.c 0x00000000   Number         0  gps_task.o ABSOLUTE
    ..\..\..\src\projects\project_main\gsm_gprs_tasks.c 0x00000000   Number         0  gsm_gprs_tasks.o ABSOLUTE
    ..\..\..\src\projects\project_main\io_tasks.c 0x00000000   Number         0  io_tasks.o ABSOLUTE
    ..\..\..\src\projects\project_main\power_management.c 0x00000000   Number         0  power_management.o ABSOLUTE
    ..\..\..\src\projects\project_main\project_common.c 0x00000000   Number         0  project_common.o ABSOLUTE
    ..\..\..\src\projects\project_main\project_main.c 0x00000000   Number         0  project_main.o ABSOLUTE
    ..\..\..\src\projects\project_main\sos_tasks.c 0x00000000   Number         0  sos_tasks.o ABSOLUTE
    ..\..\..\src\projects\project_main\system_config.c 0x00000000   Number         0  system_config.o ABSOLUTE
    ..\..\..\src\projects\project_main\tracker.c 0x00000000   Number         0  tracker.o ABSOLUTE
    ..\..\..\src\projects\project_main\upload_config_task.c 0x00000000   Number         0  upload_config_task.o ABSOLUTE
    ..\..\..\src\projects\project_main\usbdesc.c 0x00000000   Number         0  usbdesc.o ABSOLUTE
    ..\..\..\src\projects\project_main\usbuser.c 0x00000000   Number         0  usbuser.o ABSOLUTE
    ..\\..\\..\\src\\FATFS\\ff9b\\src\\flash_mem.c 0x00000000   Number         0  flash_mem.o ABSOLUTE
    ..\\..\\..\\src\\Libraries\\common_lib\\acclerometer\\xl362_io.c 0x00000000   Number         0  xl362_io.o ABSOLUTE
    ..\\..\\..\\src\\Libraries\\common_lib\\flash_mem\\sst25.c 0x00000000   Number         0  sst25.o ABSOLUTE
    ..\\..\\..\\src\\Libraries\\common_lib\\gsm_modem\\modem.c 0x00000000   Number         0  modem.o ABSOLUTE
    ..\\..\\..\\src\\Libraries\\common_lib\\pedometer\\pedometer_task.c 0x00000000   Number         0  pedometer_task.o ABSOLUTE
    ..\\..\\..\\src\\cpu\\nmi_isr_handler.c  0x00000000   Number         0  nmi_isr_handler.o ABSOLUTE
    ..\\..\\..\\src\\cpu\\start.c            0x00000000   Number         0  start.o ABSOLUTE
    ..\\..\\..\\src\\cpu\\sysinit.c          0x00000000   Number         0  sysinit.o ABSOLUTE
    ..\\..\\..\\src\\cpu\\system_MKL25Z4.c   0x00000000   Number         0  system_mkl25z4.o ABSOLUTE
    ..\\..\\..\\src\\drivers\\FTFA\\flash_FTFA.c 0x00000000   Number         0  flash_ftfa.o ABSOLUTE
    ..\\..\\..\\src\\drivers\\FTFA\\flash_ramFunc.c 0x00000000   Number         0  flash_ramfunc.o ABSOLUTE
    ..\\..\\..\\src\\drivers\\flash\\fmc.c   0x00000000   Number         0  fmc.o ABSOLUTE
    ..\\..\\..\\src\\drivers\\i2c\\hal_i2c.c 0x00000000   Number         0  hal_i2c.o ABSOLUTE
    ..\\..\\..\\src\\drivers\\llwu\\llwu.c   0x00000000   Number         0  llwu.o ABSOLUTE
    ..\\..\\..\\src\\drivers\\mcg\\mcg.c     0x00000000   Number         0  mcg.o ABSOLUTE
    ..\\..\\..\\src\\drivers\\rcm\\rcm.c     0x00000000   Number         0  rcm.o ABSOLUTE
    ..\\..\\..\\src\\drivers\\smc\\smc.c     0x00000000   Number         0  smc.o ABSOLUTE
    ..\\..\\..\\src\\drivers\\spi\\spi.c     0x00000000   Number         0  spi.o ABSOLUTE
    ..\\..\\..\\src\\drivers\\tick\\tick.c   0x00000000   Number         0  tick.o ABSOLUTE
    ..\\..\\..\\src\\drivers\\uart\\uart.c   0x00000000   Number         0  uart.o ABSOLUTE
    ..\\..\\..\\src\\drivers\\usb\\hiduser.c 0x00000000   Number         0  hiduser.o ABSOLUTE
    ..\\..\\..\\src\\drivers\\usb\\usbcore.c 0x00000000   Number         0  usbcore.o ABSOLUTE
    ..\\..\\..\\src\\drivers\\usb\\usbhw.c   0x00000000   Number         0  usbhw.o ABSOLUTE
    ..\\..\\..\\src\\projects\\project_main\\DTMF.c 0x00000000   Number         0  dtmf.o ABSOLUTE
    ..\\..\\..\\src\\projects\\project_main\\DTMF_app.c 0x00000000   Number         0  dtmf_app.o ABSOLUTE
    ..\\..\\..\\src\\projects\\project_main\\app.c 0x00000000   Number         0  app.o ABSOLUTE
    ..\\..\\..\\src\\projects\\project_main\\at_command_parser.c 0x00000000   Number         0  at_command_parser.o ABSOLUTE
    ..\\..\\..\\src\\projects\\project_main\\audio.c 0x00000000   Number         0  audio.o ABSOLUTE
    ..\\..\\..\\src\\projects\\project_main\\db.c 0x00000000   Number         0  db.o ABSOLUTE
    ..\\..\\..\\src\\projects\\project_main\\dbg_cfg_app.c 0x00000000   Number         0  dbg_cfg_app.o ABSOLUTE
    ..\\..\\..\\src\\projects\\project_main\\gprs_cmd_ctrl.c 0x00000000   Number         0  gprs_cmd_ctrl.o ABSOLUTE
    ..\\..\\..\\src\\projects\\project_main\\gps_task.c 0x00000000   Number         0  gps_task.o ABSOLUTE
    ..\\..\\..\\src\\projects\\project_main\\gsm_gprs_tasks.c 0x00000000   Number         0  gsm_gprs_tasks.o ABSOLUTE
    ..\\..\\..\\src\\projects\\project_main\\io_tasks.c 0x00000000   Number         0  io_tasks.o ABSOLUTE
    ..\\..\\..\\src\\projects\\project_main\\power_management.c 0x00000000   Number         0  power_management.o ABSOLUTE
    ..\\..\\..\\src\\projects\\project_main\\project_main.c 0x00000000   Number         0  project_main.o ABSOLUTE
    ..\\..\\..\\src\\projects\\project_main\\sos_tasks.c 0x00000000   Number         0  sos_tasks.o ABSOLUTE
    ..\\..\\..\\src\\projects\\project_main\\system_config.c 0x00000000   Number         0  system_config.o ABSOLUTE
    ..\\..\\..\\src\\projects\\project_main\\tracker.c 0x00000000   Number         0  tracker.o ABSOLUTE
    ..\\..\\..\\src\\projects\\project_main\\upload_config_task.c 0x00000000   Number         0  upload_config_task.o ABSOLUTE
    ..\\..\\..\\src\\projects\\project_main\\usbuser.c 0x00000000   Number         0  usbuser.o ABSOLUTE
    cdcmple.s                                0x00000000   Number         0  cdcmple.o ABSOLUTE
    cdrcmple.s                               0x00000000   Number         0  cdrcmple.o ABSOLUTE
    cfcmple.s                                0x00000000   Number         0  cfcmple.o ABSOLUTE
    cfrcmple.s                               0x00000000   Number         0  cfrcmple.o ABSOLUTE
    dc.s                                     0x00000000   Number         0  dc.o ABSOLUTE
    handlers.s                               0x00000000   Number         0  handlers.o ABSOLUTE
    init.s                                   0x00000000   Number         0  init.o ABSOLUTE
    .ARM.__at_0x400                          0x00000400   Section       16  startup_mkl25z4.o(.ARM.__at_0x400)
    .ARM.Collect$$$$00000000                 0x00000410   Section        0  entry.o(.ARM.Collect$$$$00000000)
    .ARM.Collect$$$$00000001                 0x00000410   Section        4  entry2.o(.ARM.Collect$$$$00000001)
    .ARM.Collect$$$$00000004                 0x00000414   Section        4  entry5.o(.ARM.Collect$$$$00000004)
    .ARM.Collect$$$$00000008                 0x00000418   Section        0  entry7b.o(.ARM.Collect$$$$00000008)
    .ARM.Collect$$$$0000000A                 0x00000418   Section        0  entry8b.o(.ARM.Collect$$$$0000000A)
    .ARM.Collect$$$$0000000B                 0x00000418   Section        8  entry9a.o(.ARM.Collect$$$$0000000B)
    .ARM.Collect$$$$0000000D                 0x00000420   Section        0  entry10a.o(.ARM.Collect$$$$0000000D)
    .ARM.Collect$$$$0000000F                 0x00000420   Section        0  entry11a.o(.ARM.Collect$$$$0000000F)
    .ARM.Collect$$$$00002712                 0x00000420   Section        4  entry2.o(.ARM.Collect$$$$00002712)
    __lit__00000000                          0x00000420   Data           4  entry2.o(.ARM.Collect$$$$00002712)
    .text                                    0x00000424   Section        0  project_main.o(.text)
    NVIC_EnableIRQ                           0x00000e9b   Thumb Code    14  project_main.o(.text)
    NVIC_SetPriority                         0x00000ea9   Thumb Code   110  project_main.o(.text)
    NVIC_SystemReset                         0x00000f17   Thumb Code    20  project_main.o(.text)
    .text                                    0x00000f78   Section        0  power_management.o(.text)
    .text                                    0x00001804   Section        0  gsm_gprs_tasks.o(.text)
    .text                                    0x000037c8   Section        0  sos_tasks.o(.text)
    .text                                    0x00004588   Section        0  io_tasks.o(.text)
    .text                                    0x00005fb8   Section        0  upload_config_task.o(.text)
    .text                                    0x00006c20   Section        0  gps_task.o(.text)
    .text                                    0x00007060   Section        0  start.o(.text)
    .text                                    0x000071dc   Section        0  sysinit.o(.text)
    .text                                    0x000072e0   Section        0  system_mkl25z4.o(.text)
    .text                                    0x000074f4   Section        0  nmi_isr_handler.o(.text)
    .text                                    0x00007554   Section       28  startup_mkl25z4.o(.text)
    .text                                    0x00007570   Section        0  llwu.o(.text)
    .text                                    0x000078e8   Section        0  mcg.o(.text)
    .text                                    0x00009790   Section        0  rcm.o(.text)
    .text                                    0x00009794   Section        0  smc.o(.text)
    .text                                    0x00009aec   Section        0  uart.o(.text)
    NVIC_SetPriority                         0x00009aed   Thumb Code   110  uart.o(.text)
    NVIC_EnableIRQ                           0x00009f1d   Thumb Code    14  uart.o(.text)
    NVIC_DisableIRQ                          0x00009f2b   Thumb Code    16  uart.o(.text)
    .text                                    0x00009f40   Section        0  spi.o(.text)
    .text                                    0x0000a038   Section        0  flash_ftfa.o(.text)
    .text                                    0x0000a1d8   Section        0  usbcore.o(.text)
    .text                                    0x0000a598   Section        0  usbhw.o(.text)
    NVIC_SetPriority                         0x0000ab8d   Thumb Code   110  usbhw.o(.text)
    .text                                    0x0000ac18   Section        0  usbuser.o(.text)
    .text                                    0x0000ac5c   Section        0  ringbuf.o(.text)
    .text                                    0x0000acf4   Section        0  hiduser.o(.text)
    .text                                    0x0000ae00   Section        0  sst25.o(.text)
    SST25__Status                            0x0000ae0b   Thumb Code    44  sst25.o(.text)
    SST25__WriteEnable                       0x0000ae37   Thumb Code    88  sst25.o(.text)
    SST25__GlobalProtect                     0x0000b04f   Thumb Code   106  sst25.o(.text)
    .text                                    0x0000b0c4   Section        0  modem.o(.text)
    .text                                    0x0000bcdc   Section        0  at_command_parser.o(.text)
    .text                                    0x0000ef10   Section        0  system_config.o(.text)
    NVIC_SystemReset                         0x0000fa4b   Thumb Code    18  system_config.o(.text)
    .text                                    0x0000fa74   Section        0  m_time.o(.text)
    .text                                    0x0001008c   Section        0  sys_time.o(.text)
    .text                                    0x000102e4   Section        0  string_parser.o(.text)
    .text                                    0x0001043c   Section        0  db.o(.text)
    .text                                    0x00010fa8   Section        0  tracker.o(.text)
    .text                                    0x00011714   Section        0  gprs_cmd_ctrl.o(.text)
    .text                                    0x000127e4   Section        0  gps.o(.text)
    .text                                    0x00013708   Section        0  tick.o(.text)
    NVIC_SetPriority                         0x00013709   Thumb Code   110  tick.o(.text)
    NVIC_SystemReset                         0x00014255   Thumb Code    18  tick.o(.text)
    .text                                    0x000142b8   Section        0  dbg_cfg_app.o(.text)
    NVIC_SetPriority                         0x00014ecf   Thumb Code   248  dbg_cfg_app.o(.text)
    NVIC_SystemReset                         0x00014fc7   Thumb Code    20  dbg_cfg_app.o(.text)
    .text                                    0x00014fe8   Section        0  diskio.o(.text)
    .text                                    0x0001507c   Section        0  ff.o(.text)
    mem_cpy                                  0x0001507d   Thumb Code    26  ff.o(.text)
    mem_set                                  0x00015097   Thumb Code    20  ff.o(.text)
    mem_cmp                                  0x000150ab   Thumb Code    40  ff.o(.text)
    chk_chr                                  0x000150d3   Thumb Code    22  ff.o(.text)
    move_window                              0x000150e9   Thumb Code    40  ff.o(.text)
    dir_sdi                                  0x00015211   Thumb Code   154  ff.o(.text)
    dir_next                                 0x000152ab   Thumb Code   138  ff.o(.text)
    ld_clust                                 0x00015335   Thumb Code    34  ff.o(.text)
    dir_find                                 0x00015357   Thumb Code    96  ff.o(.text)
    create_name                              0x000153b7   Thumb Code   270  ff.o(.text)
    follow_path                              0x000154c5   Thumb Code   148  ff.o(.text)
    check_fs                                 0x00015559   Thumb Code   150  ff.o(.text)
    chk_mounted                              0x000155ef   Thumb Code   758  ff.o(.text)
    validate                                 0x000158e5   Thumb Code    60  ff.o(.text)
    .text                                    0x00015cb0   Section        0  flash_mem.o(.text)
    .text                                    0x00015d44   Section        0  audio.o(.text)
    NVIC_SetPriority                         0x000165c5   Thumb Code   110  audio.o(.text)
    .text                                    0x00016640   Section        0  dtmf_app.o(.text)
    NVIC_SetPriority                         0x000167b3   Thumb Code   110  dtmf_app.o(.text)
    .text                                    0x00016850   Section        0  dtmf.o(.text)
    Goertzel                                 0x00016851   Thumb Code    92  dtmf.o(.text)
    GainControl                              0x000168ad   Thumb Code   152  dtmf.o(.text)
    chk_valid                                0x00016945   Thumb Code    72  dtmf.o(.text)
    DTMF_digit                               0x0001698d   Thumb Code   472  dtmf.o(.text)
    .text                                    0x00016c20   Section        0  xl362_io.o(.text)
    .text                                    0x00016d64   Section        0  ambo_pedometer.o(.text)
    .text                                    0x00017330   Section        0  pedometer_task.o(.text)
    .text                                    0x000175fc   Section        0  uidiv.o(.text)
    .text                                    0x00017628   Section        0  idiv.o(.text)
    .text                                    0x00017650   Section        0  ctype_o.o(.text)
    .text                                    0x00017658   Section        0  isspace_o.o(.text)
    .text                                    0x0001766a   Section        0  memcpya.o(.text)
    .text                                    0x0001768e   Section        0  memseta.o(.text)
    .text                                    0x000176b2   Section        0  strcat.o(.text)
    .text                                    0x000176ca   Section        0  strstr.o(.text)
    .text                                    0x000176f2   Section        0  strlen.o(.text)
    .text                                    0x00017700   Section        0  strcmp.o(.text)
    .text                                    0x0001771c   Section        0  memchr.o(.text)
    .text                                    0x00017730   Section        0  memcmp.o(.text)
    .text                                    0x0001774a   Section        0  strcpy.o(.text)
    .text                                    0x0001775c   Section        0  uread4.o(.text)
    .text                                    0x00017770   Section        0  uread8.o(.text)
    .text                                    0x0001778c   Section        0  uwrite4.o(.text)
    .text                                    0x0001779e   Section        0  uwrite8.o(.text)
    .text                                    0x000177bc   Section        0  __0sscanf.o(.text)
    .text                                    0x000177f8   Section        0  _scanf_int.o(.text)
    .text                                    0x00017942   Section        0  _scanf_str.o(.text)
    .text                                    0x00017a28   Section        0  scanf_fp.o(.text)
    _fp_value                                0x00017a29   Thumb Code   246  scanf_fp.o(.text)
    .text                                    0x00017d74   Section        0  strtol.o(.text)
    .text                                    0x00017de4   Section        0  fadd.o(.text)
    .text                                    0x00017e96   Section        0  fmul.o(.text)
    .text                                    0x00017f10   Section        0  fdiv.o(.text)
    .text                                    0x00017f8c   Section        0  dadd.o(.text)
    .text                                    0x000180f0   Section        0  dmul.o(.text)
    .text                                    0x000181c0   Section        0  ddiv.o(.text)
    .text                                    0x000182b0   Section        0  fflti.o(.text)
    .text                                    0x000182c6   Section        0  ffltui.o(.text)
    .text                                    0x000182d4   Section        0  dfltui.o(.text)
    .text                                    0x000182f0   Section        0  ffixui.o(.text)
    .text                                    0x00018318   Section        0  dfixui.o(.text)
    .text                                    0x00018354   Section        0  f2d.o(.text)
    .text                                    0x0001837c   Section       40  cdcmple.o(.text)
    .text                                    0x000183a4   Section       40  cdrcmple.o(.text)
    .text                                    0x000183cc   Section        0  d2f.o(.text)
    .text                                    0x00018404   Section       20  cfcmple.o(.text)
    .text                                    0x00018418   Section       20  cfrcmple.o(.text)
    .text                                    0x0001842c   Section        0  uldiv.o(.text)
    .text                                    0x0001848c   Section        0  llmul.o(.text)
    .text                                    0x00018506   Section        0  llshl.o(.text)
    .text                                    0x00018526   Section        0  llushr.o(.text)
    .text                                    0x00018548   Section        0  llsshr.o(.text)
    .text                                    0x0001856e   Section        0  _chval.o(.text)
    .text                                    0x0001858c   Section        0  scanf_char.o(.text)
    _scanf_char_input                        0x0001858d   Thumb Code    12  scanf_char.o(.text)
    .text                                    0x000185b8   Section        0  _sgetc.o(.text)
    .text                                    0x000185fc   Section        0  _strtoul.o(.text)
    .text                                    0x000186a4   Section        0  strtod.o(.text)
    _local_sscanf                            0x000186a5   Thumb Code    54  strtod.o(.text)
    .text                                    0x00018748   Section        0  iusefp.o(.text)
    .text                                    0x00018748   Section        0  fepilogue.o(.text)
    .text                                    0x000187cc   Section        0  depilogue.o(.text)
    .text                                    0x0001888c   Section        0  dfltul.o(.text)
    .text                                    0x000188a8   Section        0  dfixul.o(.text)
    .text                                    0x000188e8   Section       36  init.o(.text)
    .text                                    0x0001890c   Section        0  _scanf.o(.text)
    .text                                    0x00018c40   Section        0  __dczerorl.o(.text)
    i.USB_ReqGetDescriptor                   0x00018c88   Section        0  usbcore.o(i.USB_ReqGetDescriptor)
    i.USB_ReqGetStatus                       0x00018da0   Section        0  usbcore.o(i.USB_ReqGetStatus)
    i.USB_ReqSetClrFeature                   0x00018e64   Section        0  usbcore.o(i.USB_ReqSetClrFeature)
    i.USB_ReqSetConfiguration                0x00018f54   Section        0  usbcore.o(i.USB_ReqSetConfiguration)
    i.USB_ReqSetInterface                    0x00019110   Section        0  usbcore.o(i.USB_ReqSetInterface)
    i.__0sprintf$8                           0x00019250   Section        0  printf8.o(i.__0sprintf$8)
    i.__0vsprintf                            0x00019278   Section        0  printfa.o(i.__0vsprintf)
    i.__ARM_clz                              0x0001929c   Section        0  depilogue.o(i.__ARM_clz)
    i.__ARM_common_switch8                   0x000192ca   Section        0  power_management.o(i.__ARM_common_switch8)
    i.__aeabi_errno_addr                     0x000192e8   Section        0  errno.o(i.__aeabi_errno_addr)
    i.__scatterload_copy                     0x000192f0   Section       14  handlers.o(i.__scatterload_copy)
    i.__scatterload_null                     0x000192fe   Section        2  handlers.o(i.__scatterload_null)
    i.__scatterload_zeroinit                 0x00019300   Section       14  handlers.o(i.__scatterload_zeroinit)
    i._fp_digits                             0x00019310   Section        0  printfa.o(i._fp_digits)
    _fp_digits                               0x00019311   Thumb Code   314  printfa.o(i._fp_digits)
    i._is_digit                              0x00019468   Section        0  scanf_fp.o(i._is_digit)
    i._printf_core                           0x00019478   Section        0  printf8.o(i._printf_core)
    _printf_core                             0x00019479   Thumb Code  1072  printf8.o(i._printf_core)
    i._printf_core                           0x000198a8   Section        0  printfa.o(i._printf_core)
    _printf_core                             0x000198a9   Thumb Code  1766  printfa.o(i._printf_core)
    i._printf_post_padding                   0x00019fa0   Section        0  printf8.o(i._printf_post_padding)
    _printf_post_padding                     0x00019fa1   Thumb Code    32  printf8.o(i._printf_post_padding)
    i._printf_post_padding                   0x00019fc0   Section        0  printfa.o(i._printf_post_padding)
    _printf_post_padding                     0x00019fc1   Thumb Code    32  printfa.o(i._printf_post_padding)
    i._printf_pre_padding                    0x00019fe0   Section        0  printf8.o(i._printf_pre_padding)
    _printf_pre_padding                      0x00019fe1   Thumb Code    44  printf8.o(i._printf_pre_padding)
    i._printf_pre_padding                    0x0001a00c   Section        0  printfa.o(i._printf_pre_padding)
    _printf_pre_padding                      0x0001a00d   Thumb Code    44  printfa.o(i._printf_pre_padding)
    i._sputc                                 0x0001a038   Section        0  printf8.o(i._sputc)
    _sputc                                   0x0001a039   Thumb Code    10  printf8.o(i._sputc)
    i._sputc                                 0x0001a042   Section        0  printfa.o(i._sputc)
    _sputc                                   0x0001a043   Thumb Code    10  printfa.o(i._sputc)
    i.floor                                  0x0001a04c   Section        0  floor.o(i.floor)
    i.strtod                                 0x0001a118   Section        0  strtod.o(i.strtod)
    .constdata                               0x0001a134   Section      248  io_tasks.o(.constdata)
    .constdata                               0x0001a22c   Section      174  usbdesc.o(.constdata)
    .constdata                               0x0001a2dc   Section        8  usbuser.o(.constdata)
    .constdata                               0x0001a2e4   Section      878  at_command_parser.o(.constdata)
    AT_ProcessCmd                            0x0001a2ec   Data         864  at_command_parser.o(.constdata)
    .constdata                               0x0001a654   Section       96  m_time.o(.constdata)
    .constdata                               0x0001a6b4   Section       80  gps.o(.constdata)
    GPS_ProcessCmd                           0x0001a6b4   Data          80  gps.o(.constdata)
    .constdata                               0x0001a704   Section      128  ff.o(.constdata)
    ExCvt                                    0x0001a704   Data         128  ff.o(.constdata)
    .constdata                               0x0001a784   Section       50  ambo_pedometer.o(.constdata)
    .constdata                               0x0001a7b6   Section      129  ctype_o.o(.constdata)
    .constdata                               0x0001a838   Section        4  ctype_o.o(.constdata)
    table                                    0x0001a838   Data           4  ctype_o.o(.constdata)
    .conststring                             0x0001a83c   Section        9  modem.o(.conststring)
    .conststring                             0x0001a845   Section        6  at_command_parser.o(.conststring)
    .data                                    0x1ffff000   Section       17  project_main.o(.data)
    .data                                    0x1ffff011   Section        1  power_management.o(.data)
    .data                                    0x1ffff012   Section       24  sos_tasks.o(.data)
    .data                                    0x1ffff02a   Section       28  io_tasks.o(.data)
    .data                                    0x1ffff046   Section       17  upload_config_task.o(.data)
    .data                                    0x1ffff058   Section       48  gps_task.o(.data)
    .data                                    0x1ffff088   Section        5  llwu.o(.data)
    .data                                    0x1ffff090   Section        7  usbhw.o(.data)
    .data                                    0x1ffff098   Section      137  at_command_parser.o(.data)
    RingBuffInit                             0x1ffff0d8   Data           4  at_command_parser.o(.data)
    number                                   0x1ffff0dc   Data           2  at_command_parser.o(.data)
    errorCode                                0x1ffff0de   Data           2  at_command_parser.o(.data)
    level                                    0x1ffff0e0   Data           4  at_command_parser.o(.data)
    length                                   0x1ffff0e4   Data           4  at_command_parser.o(.data)
    length                                   0x1ffff0e8   Data           4  at_command_parser.o(.data)
    length                                   0x1ffff0ec   Data           4  at_command_parser.o(.data)
    timeRead                                 0x1ffff0f0   Data           4  at_command_parser.o(.data)
    pt                                       0x1ffff0f4   Data           4  at_command_parser.o(.data)
    dataLen                                  0x1ffff0f8   Data           4  at_command_parser.o(.data)
    comma                                    0x1ffff0fc   Data           1  at_command_parser.o(.data)
    getSmsDataFlag                           0x1ffff0fd   Data           1  at_command_parser.o(.data)
    u8pt                                     0x1ffff100   Data           4  at_command_parser.o(.data)
    u8pt1                                    0x1ffff104   Data           4  at_command_parser.o(.data)
    u8pt2                                    0x1ffff108   Data           4  at_command_parser.o(.data)
    .data                                    0x1ffff121   Section        1  system_config.o(.data)
    .data                                    0x1ffff124   Section       12  m_time.o(.data)
    .data                                    0x1ffff130   Section        1  string_parser.o(.data)
    lastChar                                 0x1ffff130   Data           1  string_parser.o(.data)
    .data                                    0x1ffff134   Section       36  gps.o(.data)
    .data                                    0x1ffff158   Section       12  audio.o(.data)
    .data                                    0x1ffff164   Section       48  ambo_pedometer.o(.data)
    index                                    0x1ffff166   Data           2  ambo_pedometer.o(.data)
    .data                                    0x1ffff194   Section       13  pedometer_task.o(.data)
    .data                                    0x1ffff1a4   Section        4  errno.o(.data)
    _errno                                   0x1ffff1a4   Data           4  errno.o(.data)
    .bss                                     0x1ffff1a8   Section      284  sos_tasks.o(.bss)
    .bss                                     0x1ffff2c4   Section      412  io_tasks.o(.bss)
    .bss                                     0x1ffff460   Section      352  uart.o(.bss)
    .bss                                     0x1ffff5c0   Section       64  usbcore.o(.bss)
    .bss                                     0x1ffff600   Section      540  at_command_parser.o(.bss)
    .bss                                     0x1ffff81c   Section      168  db.o(.bss)
    .bss                                     0x1ffff8c4   Section       56  tick.o(.bss)
    .text                                    0x20000000   Section        0  flash_ramfunc.o(.text)
    .data                                    0x20000020   Section       36  gsm_gprs_tasks.o(.data)
    .data                                    0x20000044   Section       24  sysinit.o(.data)
    .data                                    0x2000005c   Section        4  system_mkl25z4.o(.data)
    .data                                    0x20000060   Section       36  usbcore.o(.data)
    .data                                    0x20000084   Section        3  hiduser.o(.data)
    .data                                    0x20000088   Section        4  sst25.o(.data)
    .data                                    0x2000008c   Section       64  modem.o(.data)
    .data                                    0x200000cc   Section       12  sys_time.o(.data)
    .data                                    0x200000d8   Section       32  db.o(.data)
    .data                                    0x200000f8   Section       11  tracker.o(.data)
    .data                                    0x20000108   Section       88  tick.o(.data)
    .data                                    0x20000160   Section       72  dbg_cfg_app.o(.data)
    flagCfgProcessInUse                      0x20000180   Data           1  dbg_cfg_app.o(.data)
    .data                                    0x200001a8   Section        6  ff.o(.data)
    FatFs                                    0x200001a8   Data           4  ff.o(.data)
    Fsid                                     0x200001ac   Data           2  ff.o(.data)
    .data                                    0x200001b0   Section      549  dtmf_app.o(.data)
    DTMFchar                                 0x200001b0   Data          16  dtmf_app.o(.data)
    .bss                                     0x200003d8   Section       24  project_main.o(.bss)
    .bss                                     0x200003f0   Section     1832  project_common.o(.bss)
    .bss                                     0x20000b18   Section     1132  gsm_gprs_tasks.o(.bss)
    .bss                                     0x20000f84   Section       12  upload_config_task.o(.bss)
    .bss                                     0x20001000   Section      864  usbhw.o(.bss)
    .bss                                     0x20001360   Section      352  hiduser.o(.bss)
    .bss                                     0x200014c0   Section      440  modem.o(.bss)
    buffer                                   0x200014c0   Data         128  modem.o(.bss)
    .bss                                     0x20001678   Section     1254  system_config.o(.bss)
    .bss                                     0x20001b5e   Section      383  tracker.o(.bss)
    .bss                                     0x20001ce0   Section      832  gps.o(.bss)
    .bss                                     0x20002020   Section      632  dbg_cfg_app.o(.bss)
    buffer                                   0x20002020   Data         256  dbg_cfg_app.o(.bss)
    .bss                                     0x20002298   Section      884  audio.o(.bss)
    filFile                                  0x20002298   Data         540  audio.o(.bss)
    .bss                                     0x2000260c   Section       48  dtmf_app.o(.bss)
    .bss                                     0x2000263c   Section      256  dtmf.o(.bss)
    DTMFin                                   0x2000263c   Data         256  dtmf.o(.bss)
    .bss                                     0x2000273c   Section      544  ambo_pedometer.o(.bss)
    .bss                                     0x2000295c   Section       16  pedometer_task.o(.bss)

    Global Symbols

    Symbol Name                              Value     Ov Type        Size  Object(Section)

    BuildAttributes$$THM_ISAv3M$S$PE$A:L22$X:L11$S22$IEEE1$IW$USESV6$~STKCKD$USESV7$~SHL$OTIME$ROPI$IEEEJ$EBA8$MICROLIB$REQ8$PRES8$EABIv2 0x00000000   Number         0  anon$$obj.o ABSOLUTE
    __ARM_use_no_argv                        0x00000000   Number         0  project_main.o ABSOLUTE
    __Vectors                                0x00000000   Data           4  startup_mkl25z4.o(RESET)
    _printf_a                                0x00000000   Number         0  stubs.o ABSOLUTE
    _printf_c                                0x00000000   Number         0  stubs.o ABSOLUTE
    _printf_charcount                        0x00000000   Number         0  stubs.o ABSOLUTE
    _printf_d                                0x00000000   Number         0  stubs.o ABSOLUTE
    _printf_e                                0x00000000   Number         0  stubs.o ABSOLUTE
    _printf_f                                0x00000000   Number         0  stubs.o ABSOLUTE
    _printf_flags                            0x00000000   Number         0  stubs.o ABSOLUTE
    _printf_fp_dec                           0x00000000   Number         0  stubs.o ABSOLUTE
    _printf_fp_hex                           0x00000000   Number         0  stubs.o ABSOLUTE
    _printf_g                                0x00000000   Number         0  stubs.o ABSOLUTE
    _printf_i                                0x00000000   Number         0  stubs.o ABSOLUTE
    _printf_int_dec                          0x00000000   Number         0  stubs.o ABSOLUTE
    _printf_l                                0x00000000   Number         0  stubs.o ABSOLUTE
    _printf_lc                               0x00000000   Number         0  stubs.o ABSOLUTE
    _printf_ll                               0x00000000   Number         0  stubs.o ABSOLUTE
    _printf_lld                              0x00000000   Number         0  stubs.o ABSOLUTE
    _printf_lli                              0x00000000   Number         0  stubs.o ABSOLUTE
    _printf_llo                              0x00000000   Number         0  stubs.o ABSOLUTE
    _printf_llu                              0x00000000   Number         0  stubs.o ABSOLUTE
    _printf_llx                              0x00000000   Number         0  stubs.o ABSOLUTE
    _printf_longlong_dec                     0x00000000   Number         0  stubs.o ABSOLUTE
    _printf_longlong_hex                     0x00000000   Number         0  stubs.o ABSOLUTE
    _printf_longlong_oct                     0x00000000   Number         0  stubs.o ABSOLUTE
    _printf_ls                               0x00000000   Number         0  stubs.o ABSOLUTE
    _printf_mbtowc                           0x00000000   Number         0  stubs.o ABSOLUTE
    _printf_n                                0x00000000   Number         0  stubs.o ABSOLUTE
    _printf_o                                0x00000000   Number         0  stubs.o ABSOLUTE
    _printf_p                                0x00000000   Number         0  stubs.o ABSOLUTE
    _printf_percent                          0x00000000   Number         0  stubs.o ABSOLUTE
    _printf_pre_padding                      0x00000000   Number         0  stubs.o ABSOLUTE
    _printf_return_value                     0x00000000   Number         0  stubs.o ABSOLUTE
    _printf_s                                0x00000000   Number         0  stubs.o ABSOLUTE
    _printf_sizespec                         0x00000000   Number         0  stubs.o ABSOLUTE
    _printf_str                              0x00000000   Number         0  stubs.o ABSOLUTE
    _printf_truncate_signed                  0x00000000   Number         0  stubs.o ABSOLUTE
    _printf_truncate_unsigned                0x00000000   Number         0  stubs.o ABSOLUTE
    _printf_u                                0x00000000   Number         0  stubs.o ABSOLUTE
    _printf_wc                               0x00000000   Number         0  stubs.o ABSOLUTE
    _printf_wctomb                           0x00000000   Number         0  stubs.o ABSOLUTE
    _printf_widthprec                        0x00000000   Number         0  stubs.o ABSOLUTE
    _printf_x                                0x00000000   Number         0  stubs.o ABSOLUTE
    __cpp_initialize__aeabi_                  - Undefined Weak Reference
    __cxa_finalize                            - Undefined Weak Reference
    _clock_init                               - Undefined Weak Reference
    _microlib_exit                            - Undefined Weak Reference
    _scanf_longlong                           - Undefined Weak Reference
    __Vectors_End                            0x00000400   Data           0  startup_mkl25z4.o(RESET)
    __Vectors_Size                           0x00000400   Number         0  startup_mkl25z4.o ABSOLUTE
    __main                                   0x00000411   Thumb Code     0  entry.o(.ARM.Collect$$$$00000000)
    _main_stk                                0x00000411   Thumb Code     0  entry2.o(.ARM.Collect$$$$00000001)
    _main_scatterload                        0x00000415   Thumb Code     0  entry5.o(.ARM.Collect$$$$00000004)
    __main_after_scatterload                 0x00000419   Thumb Code     0  entry5.o(.ARM.Collect$$$$00000004)
    _main_clock                              0x00000419   Thumb Code     0  entry7b.o(.ARM.Collect$$$$00000008)
    _main_cpp_init                           0x00000419   Thumb Code     0  entry8b.o(.ARM.Collect$$$$0000000A)
    _main_init                               0x00000419   Thumb Code     0  entry9a.o(.ARM.Collect$$$$0000000B)
    __rt_final_cpp                           0x00000421   Thumb Code     0  entry10a.o(.ARM.Collect$$$$0000000D)
    __rt_final_exit                          0x00000421   Thumb Code     0  entry11a.o(.ARM.Collect$$$$0000000F)
    HardFault_Handler                        0x00000425   Thumb Code     4  project_main.o(.text)
    PIN_InterruptInit                        0x00000429   Thumb Code   104  project_main.o(.text)
    PORTD_IRQHandler                         0x00000491   Thumb Code    82  project_main.o(.text)
    SysPwrOff                                0x000004e3   Thumb Code   126  project_main.o(.text)
    SysSleep                                 0x00000561   Thumb Code   618  project_main.o(.text)
    AppRun                                   0x000007cb   Thumb Code   672  project_main.o(.text)
    main                                     0x00000a6b   Thumb Code  1072  project_main.o(.text)
    clockMonitor                             0x00000f79   Thumb Code    32  power_management.o(.text)
    uart_configure                           0x00000f99   Thumb Code     2  power_management.o(.text)
    PEE_to_BLPE                              0x00000f9b   Thumb Code    34  power_management.o(.text)
    vlp_clock_config                         0x00000fbd   Thumb Code  1228  power_management.o(.text)
    LowPowerModes                            0x00001489   Thumb Code   350  power_management.o(.text)
    SetLowPowerModes                         0x000015e7   Thumb Code   498  power_management.o(.text)
    BLPE_to_PEE                              0x000017d9   Thumb Code    34  power_management.o(.text)
    GsmTask_Init                             0x00001805   Thumb Code     8  gsm_gprs_tasks.o(.text)
    GprsTask_GetPhase                        0x0000180d   Thumb Code    48  gsm_gprs_tasks.o(.text)
    GprsTask_StopTask                        0x0000183d   Thumb Code   102  gsm_gprs_tasks.o(.text)
    GprsTask_Stop                            0x000018a3   Thumb Code    12  gsm_gprs_tasks.o(.text)
    GprsTask_SetPhase                        0x000018af   Thumb Code    54  gsm_gprs_tasks.o(.text)
    GprsTask_WakeUp                          0x000018e5   Thumb Code    84  gsm_gprs_tasks.o(.text)
    GprsTask_StartTask                       0x00001939   Thumb Code     8  gsm_gprs_tasks.o(.text)
    SendGpsDataTask_Retry                    0x00001941   Thumb Code    54  gsm_gprs_tasks.o(.text)
    GsmTask_GetPhase                         0x00001977   Thumb Code     6  gsm_gprs_tasks.o(.text)
    SendGpsData_GprsTask                     0x0000197d   Thumb Code  2988  gsm_gprs_tasks.o(.text)
    SendPowerCmdTask_Retry                   0x00002529   Thumb Code   162  gsm_gprs_tasks.o(.text)
    SendPowerCmd_GprsTask                    0x000025cb   Thumb Code  2106  gsm_gprs_tasks.o(.text)
    Gprs_Task                                0x00002e05   Thumb Code   364  gsm_gprs_tasks.o(.text)
    GprsTask_Init                            0x00002f71   Thumb Code    40  gsm_gprs_tasks.o(.text)
    GprsTask_GetTask                         0x00002f99   Thumb Code     6  gsm_gprs_tasks.o(.text)
    Gsm_Task                                 0x00002f9f   Thumb Code  1888  gsm_gprs_tasks.o(.text)
    SosTask_GetPhase                         0x000037c9   Thumb Code     6  sos_tasks.o(.text)
    ResetAllAlarmWarning                     0x000037cf   Thumb Code    50  sos_tasks.o(.text)
    SosTask_Reset                            0x00003801   Thumb Code    22  sos_tasks.o(.text)
    SosTask_Init                             0x00003817   Thumb Code    20  sos_tasks.o(.text)
    SosTask_InitPromptTimeOut                0x0000382b   Thumb Code    20  sos_tasks.o(.text)
    SosTask_PromptForWaiting                 0x0000383f   Thumb Code    74  sos_tasks.o(.text)
    SosTask_Start                            0x00003889   Thumb Code   124  sos_tasks.o(.text)
    SosTask_End                              0x00003905   Thumb Code   144  sos_tasks.o(.text)
    SosTask_IsCancelCall                     0x00003995   Thumb Code    22  sos_tasks.o(.text)
    SosTask_IsAlarmActivated                 0x000039ab   Thumb Code    32  sos_tasks.o(.text)
    SosTask_IsWaititngForCall                0x000039cb   Thumb Code    40  sos_tasks.o(.text)
    ComparePhoneNumber                       0x000039f3   Thumb Code   180  sos_tasks.o(.text)
    SosTask_SendSms                          0x00003aa7   Thumb Code    54  sos_tasks.o(.text)
    Sos_Task                                 0x00003add   Thumb Code  2714  sos_tasks.o(.text)
    PlayBatteryStatus                        0x00004589   Thumb Code    30  io_tasks.o(.text)
    VoiceCallTask_GetPhase                   0x000045a7   Thumb Code     6  io_tasks.o(.text)
    PlayAlarmWarningSound                    0x000045ad   Thumb Code    40  io_tasks.o(.text)
    Keys_Init                                0x000045d5   Thumb Code    32  io_tasks.o(.text)
    IoTask_Init                              0x000045f5   Thumb Code    18  io_tasks.o(.text)
    VoiceCallTask_AnswerCall                 0x00004607   Thumb Code    46  io_tasks.o(.text)
    VoiceCallTask_EndCall                    0x00004635   Thumb Code   128  io_tasks.o(.text)
    VoiceCallTask_Init                       0x000046b5   Thumb Code    60  io_tasks.o(.text)
    Io_Task                                  0x000046f1   Thumb Code  1090  io_tasks.o(.text)
    VoiceCallTask_InitDtmf                   0x00004b33   Thumb Code    40  io_tasks.o(.text)
    VoiceCallTask_DeInitDtmf                 0x00004b5b   Thumb Code    14  io_tasks.o(.text)
    GetDtmfKey                               0x00004b69   Thumb Code    32  io_tasks.o(.text)
    VoiceCallTask_IsDtmfKeyPressed           0x00004b89   Thumb Code     6  io_tasks.o(.text)
    VoiceCallTask_ClearEndCallStatus         0x00004b8f   Thumb Code    42  io_tasks.o(.text)
    VoiceCallTask_IsIdle                     0x00004bb9   Thumb Code    52  io_tasks.o(.text)
    VoiceCallTask_StartCall                  0x00004bed   Thumb Code   108  io_tasks.o(.text)
    VoiceCallTask_GetCallerPhoneNo           0x00004c59   Thumb Code    22  io_tasks.o(.text)
    VoiceCallTask_IsModemBusy                0x00004c6f   Thumb Code    40  io_tasks.o(.text)
    VoiceCallTask_ClearCallAction            0x00004c97   Thumb Code    22  io_tasks.o(.text)
    SmsTask_SendSms                          0x00004cad   Thumb Code    24  io_tasks.o(.text)
    SmsTask_SetSosGGLinkMessage              0x00004cc5   Thumb Code    60  io_tasks.o(.text)
    SmsTask_AddAllContactPhoneNo             0x00004d01   Thumb Code    78  io_tasks.o(.text)
    SmsTask_ClearAllSms                      0x00004d4f   Thumb Code    76  io_tasks.o(.text)
    SmsTask_SetSosAddressMessage             0x00004d9b   Thumb Code   446  io_tasks.o(.text)
    Sms_Task                                 0x00004f59   Thumb Code  1324  io_tasks.o(.text)
    SmsTask_Pause                            0x00005485   Thumb Code   122  io_tasks.o(.text)
    VoiceCall_Task                           0x000054ff   Thumb Code  2326  io_tasks.o(.text)
    SmsTask_Init                             0x00005e15   Thumb Code    44  io_tasks.o(.text)
    SmsTask_AddPhoneNo                       0x00005e41   Thumb Code    64  io_tasks.o(.text)
    SmsTask_SetMessage                       0x00005e81   Thumb Code    50  io_tasks.o(.text)
    SmsTask_IsIdle                           0x00005eb3   Thumb Code    24  io_tasks.o(.text)
    SmsTask_IsModemBusy                      0x00005ecb   Thumb Code    32  io_tasks.o(.text)
    IoTask_IsModemBusy                       0x00005eeb   Thumb Code    26  io_tasks.o(.text)
    SmsTask_IsSmsSent                        0x00005f05   Thumb Code    22  io_tasks.o(.text)
    SmsTask_GetPhase                         0x00005f1b   Thumb Code     6  io_tasks.o(.text)
    SmsTask_Stop                             0x00005f21   Thumb Code    26  io_tasks.o(.text)
    UploadConfigTask_Init                    0x00005fb9   Thumb Code    80  upload_config_task.o(.text)
    UploadConfigTask_Start                   0x00006009   Thumb Code    88  upload_config_task.o(.text)
    UploadConfigTask_IsWaitingForRetry       0x00006061   Thumb Code     6  upload_config_task.o(.text)
    UploadConfigTask_IsWaitingForRetryTimedOut 0x00006067   Thumb Code    20  upload_config_task.o(.text)
    UploadConfigTask_GetPhase                0x0000607b   Thumb Code     6  upload_config_task.o(.text)
    UploadConfigTask_SetPhase                0x00006081   Thumb Code     6  upload_config_task.o(.text)
    UploadConfigTask_WakeUp                  0x00006087   Thumb Code    16  upload_config_task.o(.text)
    UploadConfigTask_Retry                   0x00006097   Thumb Code    40  upload_config_task.o(.text)
    UploadConfigTask_Stop                    0x000060bf   Thumb Code     8  upload_config_task.o(.text)
    UploadConfigTask_StopAll                 0x000060c7   Thumb Code    14  upload_config_task.o(.text)
    UploadConfigTask_WaitRetry               0x000060d5   Thumb Code    26  upload_config_task.o(.text)
    UploadConfig_Task                        0x000060ef   Thumb Code  2772  upload_config_task.o(.text)
    GpsTask_Init                             0x00006c21   Thumb Code    26  gps_task.o(.text)
    GpsTask_GetPhase                         0x00006c3b   Thumb Code     6  gps_task.o(.text)
    GpsTask_EnableGps                        0x00006c41   Thumb Code    14  gps_task.o(.text)
    GpsTask_SetPhase                         0x00006c4f   Thumb Code     6  gps_task.o(.text)
    GpsTask_Control                          0x00006c55   Thumb Code   924  gps_task.o(.text)
    start                                    0x00007061   Thumb Code    32  start.o(.text)
    cpu_identify                             0x00007081   Thumb Code   254  start.o(.text)
    flash_identify                           0x0000717f   Thumb Code    72  start.o(.text)
    clk_out_init                             0x000071dd   Thumb Code    22  sysinit.o(.text)
    sysinit                                  0x000071f3   Thumb Code   154  sysinit.o(.text)
    enable_abort_button                      0x0000728d   Thumb Code    36  sysinit.o(.text)
    SystemInit                               0x000072e1   Thumb Code   170  system_mkl25z4.o(.text)
    SystemCoreClockUpdate                    0x0000738b   Thumb Code   310  system_mkl25z4.o(.text)
    NMI_Handler                              0x000074f5   Thumb Code    66  nmi_isr_handler.o(.text)
    enable_NMI_button                        0x00007537   Thumb Code     8  nmi_isr_handler.o(.text)
    Reset_Handler                            0x00007555   Thumb Code     8  startup_mkl25z4.o(.text)
    SVC_Handler                              0x00007561   Thumb Code     2  startup_mkl25z4.o(.text)
    PendSV_Handler                           0x00007563   Thumb Code     2  startup_mkl25z4.o(.text)
    ADC0_IRQHandler                          0x00007567   Thumb Code     0  startup_mkl25z4.o(.text)
    CMP0_IRQHandler                          0x00007567   Thumb Code     0  startup_mkl25z4.o(.text)
    DAC0_IRQHandler                          0x00007567   Thumb Code     0  startup_mkl25z4.o(.text)
    DMA0_IRQHandler                          0x00007567   Thumb Code     0  startup_mkl25z4.o(.text)
    DMA1_IRQHandler                          0x00007567   Thumb Code     0  startup_mkl25z4.o(.text)
    DMA2_IRQHandler                          0x00007567   Thumb Code     0  startup_mkl25z4.o(.text)
    DMA3_IRQHandler                          0x00007567   Thumb Code     0  startup_mkl25z4.o(.text)
    DefaultISR                               0x00007567   Thumb Code     0  startup_mkl25z4.o(.text)
    FTFA_IRQHandler                          0x00007567   Thumb Code     0  startup_mkl25z4.o(.text)
    I2C0_IRQHandler                          0x00007567   Thumb Code     0  startup_mkl25z4.o(.text)
    I2C1_IRQHandler                          0x00007567   Thumb Code     0  startup_mkl25z4.o(.text)
    LVD_LVW_IRQHandler                       0x00007567   Thumb Code     0  startup_mkl25z4.o(.text)
    MCG_IRQHandler                           0x00007567   Thumb Code     0  startup_mkl25z4.o(.text)
    PIT_IRQHandler                           0x00007567   Thumb Code     0  startup_mkl25z4.o(.text)
    PORTA_IRQHandler                         0x00007567   Thumb Code     0  startup_mkl25z4.o(.text)
    RTC_IRQHandler                           0x00007567   Thumb Code     0  startup_mkl25z4.o(.text)
    RTC_Seconds_IRQHandler                   0x00007567   Thumb Code     0  startup_mkl25z4.o(.text)
    Reserved20_IRQHandler                    0x00007567   Thumb Code     0  startup_mkl25z4.o(.text)
    Reserved39_IRQHandler                    0x00007567   Thumb Code     0  startup_mkl25z4.o(.text)
    Reserved45_IRQHandler                    0x00007567   Thumb Code     0  startup_mkl25z4.o(.text)
    SPI0_IRQHandler                          0x00007567   Thumb Code     0  startup_mkl25z4.o(.text)
    SPI1_IRQHandler                          0x00007567   Thumb Code     0  startup_mkl25z4.o(.text)
    TSI0_IRQHandler                          0x00007567   Thumb Code     0  startup_mkl25z4.o(.text)
    UART2_IRQHandler                         0x00007567   Thumb Code     0  startup_mkl25z4.o(.text)
    llwu_configure                           0x00007571   Thumb Code   348  llwu.o(.text)
    llwu_configure_filter                    0x000076cd   Thumb Code    70  llwu.o(.text)
    LLW_IRQHandler                           0x00007713   Thumb Code   458  llwu.o(.text)
    pll_init                                 0x000078e9   Thumb Code   714  mcg.o(.text)
    new_pll_freq                             0x00007bb3   Thumb Code   488  mcg.o(.text)
    pee_pbe                                  0x00007d9b   Thumb Code   108  mcg.o(.text)
    pbe_pee                                  0x00007e07   Thumb Code   194  mcg.o(.text)
    pbe_fbe                                  0x00007ec9   Thumb Code   110  mcg.o(.text)
    fbe_pbe                                  0x00007f37   Thumb Code   282  mcg.o(.text)
    pbe_blpe                                 0x00008051   Thumb Code    66  mcg.o(.text)
    blpe_pbe                                 0x00008093   Thumb Code   268  mcg.o(.text)
    blpe_fbe                                 0x0000819f   Thumb Code   112  mcg.o(.text)
    fbe_blpe                                 0x0000820f   Thumb Code    66  mcg.o(.text)
    fll_freq                                 0x00008251   Thumb Code   326  mcg.o(.text)
    fbe_fei                                  0x00008397   Thumb Code   212  mcg.o(.text)
    fei_fbe                                  0x0000846b   Thumb Code   474  mcg.o(.text)
    fbe_fee                                  0x00008645   Thumb Code   194  mcg.o(.text)
    fee_fbe                                  0x00008707   Thumb Code   106  mcg.o(.text)
    fbe_fbi                                  0x00008771   Thumb Code   376  mcg.o(.text)
    fbi_fbe                                  0x000088e9   Thumb Code   462  mcg.o(.text)
    fbi_blpi                                 0x00008ab7   Thumb Code    80  mcg.o(.text)
    blpi_fbi                                 0x00008b07   Thumb Code   100  mcg.o(.text)
    fbi_fee                                  0x00008b6b   Thumb Code   546  mcg.o(.text)
    fee_fbi                                  0x00008d8d   Thumb Code   354  mcg.o(.text)
    fbi_fei                                  0x00008eef   Thumb Code   202  mcg.o(.text)
    fei_fbi                                  0x00008fb9   Thumb Code   308  mcg.o(.text)
    fei_fee                                  0x000090ed   Thumb Code   466  mcg.o(.text)
    fee_fei                                  0x000092bf   Thumb Code   144  mcg.o(.text)
    what_mcg_mode                            0x0000934f   Thumb Code   344  mcg.o(.text)
    atc                                      0x000094a7   Thumb Code   488  mcg.o(.text)
    clk_monitor_0                            0x0000968f   Thumb Code    32  mcg.o(.text)
    chk_for_resistor                         0x000096af   Thumb Code   202  mcg.o(.text)
    outSRS                                   0x00009791   Thumb Code     2  rcm.o(.text)
    sleep                                    0x00009795   Thumb Code    16  smc.o(.text)
    deepsleep                                0x000097a5   Thumb Code    16  smc.o(.text)
    enter_wait                               0x000097b5   Thumb Code    16  smc.o(.text)
    enter_stop                               0x000097c5   Thumb Code    62  smc.o(.text)
    enter_vlpr                               0x00009803   Thumb Code   104  smc.o(.text)
    exit_vlpr                                0x0000986b   Thumb Code    64  smc.o(.text)
    enter_vlps                               0x000098ab   Thumb Code    58  smc.o(.text)
    enter_lls                                0x000098e5   Thumb Code    58  smc.o(.text)
    enter_vlls3                              0x0000991f   Thumb Code    62  smc.o(.text)
    enter_vlls2                              0x0000995d   Thumb Code    62  smc.o(.text)
    enter_vlls1                              0x0000999b   Thumb Code    62  smc.o(.text)
    enter_vlls0                              0x000099d9   Thumb Code   136  smc.o(.text)
    enter_vlls0_nopor                        0x00009a61   Thumb Code   124  smc.o(.text)
    uart_init                                0x00009b5b   Thumb Code   152  uart.o(.text)
    uart_getchar                             0x00009bf3   Thumb Code    16  uart.o(.text)
    uart_putchar                             0x00009c03   Thumb Code    14  uart.o(.text)
    uart_putstr                              0x00009c11   Thumb Code    26  uart.o(.text)
    uart_getchar_present                     0x00009c2b   Thumb Code    10  uart.o(.text)
    uart0_init                               0x00009c35   Thumb Code   404  uart.o(.text)
    uart0_getchar                            0x00009dc9   Thumb Code    16  uart.o(.text)
    uart0_putchar                            0x00009dd9   Thumb Code    14  uart.o(.text)
    uart0_putstr                             0x00009de7   Thumb Code    26  uart.o(.text)
    uart0_getchar_present                    0x00009e01   Thumb Code    10  uart.o(.text)
    UART0_IRQHandler                         0x00009e0b   Thumb Code   106  uart.o(.text)
    UART1_IRQHandler                         0x00009e75   Thumb Code   168  uart.o(.text)
    SPI_Init                                 0x00009f41   Thumb Code   146  spi.o(.text)
    halSpiWriteByte                          0x00009fd3   Thumb Code    66  spi.o(.text)
    Flash_Init                               0x0000a039   Thumb Code    78  flash_ftfa.o(.text)
    Flash_SectorErase                        0x0000a087   Thumb Code   138  flash_ftfa.o(.text)
    Flash_ByteProgram                        0x0000a111   Thumb Code   190  flash_ftfa.o(.text)
    USB_ResetCore                            0x0000a1d9   Thumb Code    32  usbcore.o(.text)
    USB_SetupStage                           0x0000a1f9   Thumb Code    12  usbcore.o(.text)
    USB_DataInStage                          0x0000a205   Thumb Code    52  usbcore.o(.text)
    USB_DataOutStage                         0x0000a239   Thumb Code    34  usbcore.o(.text)
    USB_StatusInStage                        0x0000a25b   Thumb Code    14  usbcore.o(.text)
    USB_StatusOutStage                       0x0000a269   Thumb Code    12  usbcore.o(.text)
    USB_EndPoint0                            0x0000a275   Thumb Code   756  usbcore.o(.text)
    USB_IntrEna                              0x0000a599   Thumb Code    24  usbhw.o(.text)
    USB_Init                                 0x0000a5b1   Thumb Code   168  usbhw.o(.text)
    USB_Connect                              0x0000a659   Thumb Code    58  usbhw.o(.text)
    USB_Reset                                0x0000a693   Thumb Code    94  usbhw.o(.text)
    USB_Suspend                              0x0000a6f1   Thumb Code    18  usbhw.o(.text)
    USB_Resume                               0x0000a703   Thumb Code    18  usbhw.o(.text)
    USB_WakeUp                               0x0000a715   Thumb Code    58  usbhw.o(.text)
    USB_WakeUpCfg                            0x0000a74f   Thumb Code     2  usbhw.o(.text)
    USB_SetAddress                           0x0000a751   Thumb Code    12  usbhw.o(.text)
    USB_Configure                            0x0000a75d   Thumb Code     2  usbhw.o(.text)
    USB_ResetEP                              0x0000a75f   Thumb Code   140  usbhw.o(.text)
    USB_ConfigEP                             0x0000a7eb   Thumb Code    36  usbhw.o(.text)
    USB_DirCtrlEP                            0x0000a80f   Thumb Code     2  usbhw.o(.text)
    USB_EnableEP                             0x0000a811   Thumb Code    54  usbhw.o(.text)
    USB_DisableEP                            0x0000a847   Thumb Code    54  usbhw.o(.text)
    USB_SetStallEP                           0x0000a87d   Thumb Code    26  usbhw.o(.text)
    USB_ClrStallEP                           0x0000a897   Thumb Code    36  usbhw.o(.text)
    USB_ClearEPBuf                           0x0000a8bb   Thumb Code     2  usbhw.o(.text)
    USB_ReadEP                               0x0000a8bd   Thumb Code   260  usbhw.o(.text)
    USB_WriteEP                              0x0000a9c1   Thumb Code    94  usbhw.o(.text)
    USB_GetFrame                             0x0000aa1f   Thumb Code    16  usbhw.o(.text)
    USB0_IRQHandler                          0x0000aa2f   Thumb Code   350  usbhw.o(.text)
    USB_Reset_Event                          0x0000ac19   Thumb Code     8  usbuser.o(.text)
    USB_Suspend_Event                        0x0000ac21   Thumb Code     8  usbuser.o(.text)
    USB_Resume_Event                         0x0000ac29   Thumb Code     2  usbuser.o(.text)
    USB_Configure_Event                      0x0000ac2b   Thumb Code    16  usbuser.o(.text)
    USB_EndPoint1                            0x0000ac3b   Thumb Code    30  usbuser.o(.text)
    RINGBUF_Init                             0x0000ac5d   Thumb Code    34  ringbuf.o(.text)
    RINGBUF_Put                              0x0000ac7f   Thumb Code    42  ringbuf.o(.text)
    RINGBUF_Get                              0x0000aca9   Thumb Code    46  ringbuf.o(.text)
    RINGBUF_GetFill                          0x0000acd7   Thumb Code    30  ringbuf.o(.text)
    SetOutReport                             0x0000acf5   Thumb Code    38  hiduser.o(.text)
    GetInReport                              0x0000ad1b   Thumb Code    64  hiduser.o(.text)
    HID_GetReport                            0x0000ad5b   Thumb Code    40  hiduser.o(.text)
    HID_SetReport                            0x0000ad83   Thumb Code    40  hiduser.o(.text)
    HID_GetIdle                              0x0000adab   Thumb Code    16  hiduser.o(.text)
    HID_SetIdle                              0x0000adbb   Thumb Code    16  hiduser.o(.text)
    HID_GetProtocol                          0x0000adcb   Thumb Code    12  hiduser.o(.text)
    HID_SetProtocol                          0x0000add7   Thumb Code    12  hiduser.o(.text)
    SST25_Init                               0x0000ae01   Thumb Code    10  sst25.o(.text)
    SST25_Erase                              0x0000ae8f   Thumb Code   126  sst25.o(.text)
    _SST25_Write                             0x0000af0d   Thumb Code   128  sst25.o(.text)
    SST25_Write                              0x0000af8d   Thumb Code    82  sst25.o(.text)
    SST25_Read                               0x0000afdf   Thumb Code   112  sst25.o(.text)
    ModemCmdTask_IsCriticalCmd               0x0000b0c5   Thumb Code     6  modem.o(.text)
    MODEM_FlushBuffer                        0x0000b0cb   Thumb Code    18  modem.o(.text)
    MODEM_SendCommand                        0x0000b0dd   Thumb Code   168  modem.o(.text)
    MODEM_Init                               0x0000b185   Thumb Code   200  modem.o(.text)
    MODEM_PowerOff                           0x0000b24d   Thumb Code    46  modem.o(.text)
    ModemCmdTask_SetCriticalCmd              0x0000b27b   Thumb Code    16  modem.o(.text)
    ModemCmdTask_IsIdle                      0x0000b28b   Thumb Code    30  modem.o(.text)
    ModemCmdTask_SendCmd                     0x0000b2a9   Thumb Code   128  modem.o(.text)
    ModemCmdTask_GetPhase                    0x0000b329   Thumb Code     6  modem.o(.text)
    ModemCmdTask_Reset                       0x0000b32f   Thumb Code     8  modem.o(.text)
    ModemCmdTask_SetWait                     0x0000b337   Thumb Code    70  modem.o(.text)
    ModemCmd_Task                            0x0000b37d   Thumb Code   514  modem.o(.text)
    ModemCmdTask_Cancel                      0x0000b57f   Thumb Code    56  modem.o(.text)
    MODEM_CheckGPRSDataOut                   0x0000b5b7   Thumb Code   140  modem.o(.text)
    MODEM_CloseSocket                        0x0000b643   Thumb Code   122  modem.o(.text)
    ParserCellLocate                         0x0000b6bd   Thumb Code   316  modem.o(.text)
    MODEM_DisconectSocket                    0x0000b7f9   Thumb Code    14  modem.o(.text)
    MODEM_GetSocket                          0x0000b807   Thumb Code    68  modem.o(.text)
    VoiceSetup                               0x0000b84b   Thumb Code   166  modem.o(.text)
    MODEM_CheckResponse                      0x0000b8f1   Thumb Code   354  modem.o(.text)
    MODEM_GetCSQ                             0x0000ba53   Thumb Code   282  modem.o(.text)
    SendSMS                                  0x0000bb6d   Thumb Code   112  modem.o(.text)
    MODEM_Gets                               0x0000bbdd   Thumb Code    80  modem.o(.text)
    GetIMEI                                  0x0000bc2d   Thumb Code    66  modem.o(.text)
    AT_CmdProcessInit                        0x0000bcdd   Thumb Code    56  at_command_parser.o(.text)
    AT_ComnandParser                         0x0000bd15   Thumb Code    36  at_command_parser.o(.text)
    GsmGetTime                               0x0000bd39   Thumb Code   460  at_command_parser.o(.text)
    CallOutProcess                           0x0000bf05   Thumb Code   122  at_command_parser.o(.text)
    CallCancel                               0x0000bf7f   Thumb Code    12  at_command_parser.o(.text)
    CallErrorReport                          0x0000bf8b   Thumb Code   144  at_command_parser.o(.text)
    CallNoAnswer                             0x0000c01b   Thumb Code    12  at_command_parser.o(.text)
    CallBusy                                 0x0000c027   Thumb Code    12  at_command_parser.o(.text)
    GetBatteryStatus                         0x0000c033   Thumb Code   110  at_command_parser.o(.text)
    CellLocateParser                         0x0000c0a1   Thumb Code   144  at_command_parser.o(.text)
    GetCallerNumber                          0x0000c131   Thumb Code    58  at_command_parser.o(.text)
    RingCallProcess                          0x0000c16b   Thumb Code    26  at_command_parser.o(.text)
    SMS_ModemOk                              0x0000c185   Thumb Code    12  at_command_parser.o(.text)
    SMS_NewMessage                           0x0000c191   Thumb Code    12  at_command_parser.o(.text)
    RemaskSocket                             0x0000c19d   Thumb Code    40  at_command_parser.o(.text)
    GPRS_SocketControl                       0x0000c1c5   Thumb Code   150  at_command_parser.o(.text)
    GPRS_CreateSocket                        0x0000c25b   Thumb Code    26  at_command_parser.o(.text)
    GPRS_CloseSocket1                        0x0000c275   Thumb Code    32  at_command_parser.o(.text)
    GPRS_CloseSocket                         0x0000c295   Thumb Code    74  at_command_parser.o(.text)
    SMS_Process                              0x0000c2df   Thumb Code   146  at_command_parser.o(.text)
    GPRS_Deactivation                        0x0000c371   Thumb Code    12  at_command_parser.o(.text)
    GPRS_GetLength                           0x0000c37d   Thumb Code   164  at_command_parser.o(.text)
    GPRS_CmdRecvData                         0x0000c421   Thumb Code   408  at_command_parser.o(.text)
    GPRS_GetDNS                              0x0000c5b9   Thumb Code    82  at_command_parser.o(.text)
    GPRS_GetData                             0x0000c60b   Thumb Code   252  at_command_parser.o(.text)
    SMS_ReadMsg                              0x0000c707   Thumb Code   268  at_command_parser.o(.text)
    CMD_CfgParse                             0x0000c813   Thumb Code  9116  at_command_parser.o(.text)
    SMS_Manage                               0x0000ebaf   Thumb Code   836  at_command_parser.o(.text)
    CFG_Save                                 0x0000ef11   Thumb Code   216  system_config.o(.text)
    CFG_Load                                 0x0000efe9   Thumb Code  1216  system_config.o(.text)
    CFG_Check                                0x0000f4a9   Thumb Code  1282  system_config.o(.text)
    CFG_CheckSum                             0x0000f9ab   Thumb Code    46  system_config.o(.text)
    CFG_Write                                0x0000f9d9   Thumb Code   114  system_config.o(.text)
    gmtime_r                                 0x0000fa75   Thumb Code   368  m_time.o(.text)
    localtime_r                              0x0000fbe5   Thumb Code    26  m_time.o(.text)
    mktime                                   0x0000fbff   Thumb Code  1144  m_time.o(.text)
    TIME_FromGsm                             0x0001008d   Thumb Code   208  sys_time.o(.text)
    TIME_FromGps                             0x0001015d   Thumb Code   114  sys_time.o(.text)
    TIME_GetSec                              0x000101cf   Thumb Code   146  sys_time.o(.text)
    TIME_FromSec                             0x00010261   Thumb Code    84  sys_time.o(.text)
    TIME_AddSec                              0x000102b5   Thumb Code    42  sys_time.o(.text)
    StrParserInit                            0x000102e5   Thumb Code    42  string_parser.o(.text)
    StrParserCtl                             0x0001030f   Thumb Code    70  string_parser.o(.text)
    StrComnandParser                         0x00010355   Thumb Code   226  string_parser.o(.text)
    DbCalcCheckSum                           0x0001043d   Thumb Code    26  db.o(.text)
    DB_U32Load                               0x00010457   Thumb Code    84  db.o(.text)
    DB_ResetCntSave                          0x000104ab   Thumb Code   108  db.o(.text)
    DB_ResetCntLoad                          0x00010517   Thumb Code    86  db.o(.text)
    DB_MileageLoad                           0x0001056d   Thumb Code    86  db.o(.text)
    DB_LogRingSave                           0x000105c3   Thumb Code   280  db.o(.text)
    DB_LogRingReset                          0x000106db   Thumb Code    28  db.o(.text)
    DB_InitLog                               0x000106f7   Thumb Code   332  db.o(.text)
    DB_FlashMemInit                          0x00010843   Thumb Code   646  db.o(.text)
    DB_MileageSave                           0x00010ac9   Thumb Code    96  db.o(.text)
    DB_FloatToU32                            0x00010b29   Thumb Code    24  db.o(.text)
    DB_U32ToFloat                            0x00010b41   Thumb Code     8  db.o(.text)
    DB_U32Save                               0x00010b49   Thumb Code   140  db.o(.text)
    DB_DataLogFill                           0x00010bd5   Thumb Code    86  db.o(.text)
    DB_LoadDataInfo                          0x00010c2b   Thumb Code   290  db.o(.text)
    DB_LoadDataLogTail                       0x00010d4d   Thumb Code   192  db.o(.text)
    DB_SaveDataLog                           0x00010e0d   Thumb Code   412  db.o(.text)
    TrackerInit                              0x00010fa9   Thumb Code    12  tracker.o(.text)
    TrackerTask                              0x00010fb5   Thumb Code  1580  tracker.o(.text)
    PrintTrackerInfo                         0x000115e1   Thumb Code     2  tracker.o(.text)
    CheckTrackerMsgFill                      0x000115e3   Thumb Code    10  tracker.o(.text)
    CheckTrackerMsgIsReady                   0x000115ed   Thumb Code    24  tracker.o(.text)
    GetLastTrackerMsg                        0x00011605   Thumb Code    44  tracker.o(.text)
    GetTrackerMsg                            0x00011631   Thumb Code   162  tracker.o(.text)
    DCFG_Add                                 0x00011715   Thumb Code   130  gprs_cmd_ctrl.o(.text)
    SCFG_Add                                 0x00011797   Thumb Code   102  gprs_cmd_ctrl.o(.text)
    DCFG_Parser                              0x000117fd   Thumb Code   132  gprs_cmd_ctrl.o(.text)
    IsGprsDataPacket                         0x00011881   Thumb Code    36  gprs_cmd_ctrl.o(.text)
    DPWF_Add                                 0x000118a5   Thumb Code   124  gprs_cmd_ctrl.o(.text)
    DPWO_Add                                 0x00011921   Thumb Code   124  gprs_cmd_ctrl.o(.text)
    DCLI_Add                                 0x0001199d   Thumb Code  1148  gprs_cmd_ctrl.o(.text)
    DGPS_Add                                 0x00011e19   Thumb Code  1066  gprs_cmd_ctrl.o(.text)
    DSOS_Add                                 0x00012243   Thumb Code  1356  gprs_cmd_ctrl.o(.text)
    GPRMC_Process                            0x000127e5   Thumb Code   180  gps.o(.text)
    GPGGA_Process                            0x00012899   Thumb Code   180  gps.o(.text)
    GPGSA_Process                            0x0001294d   Thumb Code   180  gps.o(.text)
    GPGSV_Process                            0x00012a01   Thumb Code   180  gps.o(.text)
    GPS_ComnandParser                        0x00012ab5   Thumb Code   348  gps.o(.text)
    neamFormatLatLng                         0x00012c11   Thumb Code    90  gps.o(.text)
    formatLat                                0x00012c6b   Thumb Code   132  gps.o(.text)
    formatLng                                0x00012cef   Thumb Code   132  gps.o(.text)
    formatLatLng                             0x00012d73   Thumb Code    88  gps.o(.text)
    GpsGetInfo                               0x00012dcb   Thumb Code    62  gps.o(.text)
    nmea_zero_INFO                           0x00012e09   Thumb Code    22  gps.o(.text)
    GPSInit                                  0x00012e1f   Thumb Code    10  gps.o(.text)
    nmea_GPGSV2info                          0x00012e29   Thumb Code    10  gps.o(.text)
    nmea_atoi                                0x00012e33   Thumb Code    50  gps.o(.text)
    nmea_atof                                0x00012e65   Thumb Code    54  gps.o(.text)
    nmea_scanf                               0x00012e9b   Thumb Code   606  gps.o(.text)
    nmea_parse_GPGSV                         0x000130f9   Thumb Code   152  gps.o(.text)
    nmea_GPGSA2info                          0x00013191   Thumb Code    38  gps.o(.text)
    nmea_parse_GPGSA                         0x000131b7   Thumb Code   114  gps.o(.text)
    nmea_GPGGA2info                          0x00013229   Thumb Code   136  gps.o(.text)
    _nmea_parse_time                         0x000132b1   Thumb Code   128  gps.o(.text)
    nmea_parse_GPGGA                         0x00013331   Thumb Code   130  gps.o(.text)
    nmea_GPRMC2info                          0x000133b3   Thumb Code   186  gps.o(.text)
    nmea_parse_GPRMC                         0x0001346d   Thumb Code   150  gps.o(.text)
    GPS_GetInfo                              0x00013503   Thumb Code   446  gps.o(.text)
    nmea_calc_crc                            0x000136c1   Thumb Code    24  gps.o(.text)
    LPTMR_init                               0x00013777   Thumb Code    72  tick.o(.text)
    GsmLedControl                            0x000137bf   Thumb Code   120  tick.o(.text)
    GpsLedControl                            0x00013837   Thumb Code    72  tick.o(.text)
    LedControl                               0x0001387f   Thumb Code   226  tick.o(.text)
    ClearLastKeyStatus                       0x00013961   Thumb Code    10  tick.o(.text)
    KeyTask_Control                          0x0001396b   Thumb Code   584  tick.o(.text)
    ChargerLedControl                        0x00013bb3   Thumb Code   148  tick.o(.text)
    LPTimerTask                              0x00013c47   Thumb Code  1130  tick.o(.text)
    LPTimer_IRQHandler                       0x000140b1   Thumb Code     8  tick.o(.text)
    UpdateRtcTime                            0x000140b9   Thumb Code    28  tick.o(.text)
    TICK_Init                                0x000140d5   Thumb Code    50  tick.o(.text)
    TICK_DeInit                              0x00014107   Thumb Code     8  tick.o(.text)
    GetKeyPressed                            0x0001410f   Thumb Code    20  tick.o(.text)
    CheckKeyPressed                          0x00014123   Thumb Code    16  tick.o(.text)
    GetKeyPressTime                          0x00014133   Thumb Code    16  tick.o(.text)
    SysTick_Handler                          0x00014143   Thumb Code    30  tick.o(.text)
    TICK_Get                                 0x00014161   Thumb Code     6  tick.o(.text)
    TICK_Get64                               0x00014167   Thumb Code     8  tick.o(.text)
    DelayMs                                  0x0001416f   Thumb Code    24  tick.o(.text)
    InitTimeout                              0x00014187   Thumb Code    22  tick.o(.text)
    CheckTimeout                             0x0001419d   Thumb Code    72  tick.o(.text)
    TimerDelayms                             0x000141e5   Thumb Code    50  tick.o(.text)
    InitFindData                             0x00014217   Thumb Code    22  tick.o(.text)
    FindData                                 0x0001422d   Thumb Code    40  tick.o(.text)
    DbgCfgPrintf                             0x000142b9   Thumb Code    78  dbg_cfg_app.o(.text)
    CfgParserPacket                          0x00014307   Thumb Code   170  dbg_cfg_app.o(.text)
    CfgCalcCheckSum                          0x000143b1   Thumb Code    26  dbg_cfg_app.o(.text)
    CfgUSBSendData                           0x000143cb   Thumb Code    80  dbg_cfg_app.o(.text)
    CfgProcessData                           0x0001441b   Thumb Code  1754  dbg_cfg_app.o(.text)
    vHID_Task                                0x00014af5   Thumb Code   132  dbg_cfg_app.o(.text)
    FlashReadWriteCtrl                       0x00014b79   Thumb Code   216  dbg_cfg_app.o(.text)
    TPM0_IRQHandler                          0x00014c51   Thumb Code   282  dbg_cfg_app.o(.text)
    APP_Write2FlashMem                       0x00014d6b   Thumb Code    68  dbg_cfg_app.o(.text)
    APP_Read2FlashMem                        0x00014daf   Thumb Code    68  dbg_cfg_app.o(.text)
    TPM0_DeInit                              0x00014df3   Thumb Code    52  dbg_cfg_app.o(.text)
    TPM0_Init                                0x00014e27   Thumb Code   168  dbg_cfg_app.o(.text)
    disk_initialize                          0x00014fe9   Thumb Code    22  diskio.o(.text)
    disk_status                              0x00014fff   Thumb Code    22  diskio.o(.text)
    disk_read                                0x00015015   Thumb Code    36  diskio.o(.text)
    disk_write                               0x00015039   Thumb Code    36  diskio.o(.text)
    disk_ioctl                               0x0001505d   Thumb Code    30  diskio.o(.text)
    clust2sect                               0x00015111   Thumb Code    26  ff.o(.text)
    get_fat                                  0x0001512b   Thumb Code   230  ff.o(.text)
    f_mount                                  0x00015921   Thumb Code    44  ff.o(.text)
    f_open                                   0x0001594d   Thumb Code   140  ff.o(.text)
    f_read                                   0x000159d9   Thumb Code   394  ff.o(.text)
    f_close                                  0x00015b63   Thumb Code    22  ff.o(.text)
    f_lseek                                  0x00015b79   Thumb Code   312  ff.o(.text)
    MMC_disk_initialize                      0x00015cb1   Thumb Code     4  flash_mem.o(.text)
    SST25_disk_status                        0x00015cb5   Thumb Code     4  flash_mem.o(.text)
    SST25_disk_read                          0x00015cb9   Thumb Code    28  flash_mem.o(.text)
    SST25_disk_write                         0x00015cd5   Thumb Code    28  flash_mem.o(.text)
    get_fattime                              0x00015cf1   Thumb Code    24  flash_mem.o(.text)
    SST25_disk_ioctl                         0x00015d09   Thumb Code    60  flash_mem.o(.text)
    DAC_Init                                 0x00015d45   Thumb Code    54  audio.o(.text)
    DAC_DeInit                               0x00015d7b   Thumb Code    50  audio.o(.text)
    TPM1_Init                                0x00015dad   Thumb Code   112  audio.o(.text)
    TPM1_DeInit                              0x00015e1d   Thumb Code    36  audio.o(.text)
    TPM1_IRQHandler                          0x00015e41   Thumb Code    68  audio.o(.text)
    AUDIO_Init                               0x00015e85   Thumb Code   104  audio.o(.text)
    AudioEnable                              0x00015eed   Thumb Code     8  audio.o(.text)
    AudioStopAll                             0x00015ef5   Thumb Code    28  audio.o(.text)
    AudioStopCheck                           0x00015f11   Thumb Code    24  audio.o(.text)
    AudioTask_GetPhase                       0x00015f29   Thumb Code     6  audio.o(.text)
    AudioPlayFile                            0x00015f2f   Thumb Code    54  audio.o(.text)
    PlayVersion                              0x00015f65   Thumb Code    76  audio.o(.text)
    htons                                    0x00015fb1   Thumb Code    44  audio.o(.text)
    ReadWavInfo                              0x00015fdd   Thumb Code   210  audio.o(.text)
    AudioControler                           0x000160af   Thumb Code  1302  audio.o(.text)
    TPM2_IRQHandler                          0x00016641   Thumb Code    56  dtmf_app.o(.text)
    ADC0_Init                                0x00016679   Thumb Code    34  dtmf_app.o(.text)
    ADC0_DeInit                              0x0001669b   Thumb Code    16  dtmf_app.o(.text)
    TPM2_Init                                0x000166ab   Thumb Code   110  dtmf_app.o(.text)
    TPM2_DeInit                              0x00016719   Thumb Code    30  dtmf_app.o(.text)
    DTMF_DeInit                              0x00016737   Thumb Code    18  dtmf_app.o(.text)
    DTMF_Init                                0x00016749   Thumb Code    36  dtmf_app.o(.text)
    DTMF_Task                                0x0001676d   Thumb Code    70  dtmf_app.o(.text)
    DTMF_Detect                              0x00016b65   Thumb Code   110  dtmf.o(.text)
    xl362Write                               0x00016c21   Thumb Code    64  xl362_io.o(.text)
    xl362Init                                0x00016c61   Thumb Code   122  xl362_io.o(.text)
    xl362Read                                0x00016cdb   Thumb Code    68  xl362_io.o(.text)
    xl362FifoRead                            0x00016d1f   Thumb Code    60  xl362_io.o(.text)
    ambo_pedometer_init                      0x00016d65   Thumb Code   122  ambo_pedometer.o(.text)
    ambo_pedometer_sample_update             0x00016ddf   Thumb Code    68  ambo_pedometer.o(.text)
    b2_filter                                0x00016e23   Thumb Code   168  ambo_pedometer.o(.text)
    b_filter                                 0x00016ecb   Thumb Code   154  ambo_pedometer.o(.text)
    ambo_step_detect                         0x00016f65   Thumb Code   904  ambo_pedometer.o(.text)
    accelCheckManDown                        0x00017331   Thumb Code   158  pedometer_task.o(.text)
    PedometerTaskInit                        0x000173cf   Thumb Code    26  pedometer_task.o(.text)
    PedometerTask                            0x000173e9   Thumb Code   498  pedometer_task.o(.text)
    __aeabi_uidiv                            0x000175fd   Thumb Code     0  uidiv.o(.text)
    __aeabi_uidivmod                         0x000175fd   Thumb Code    44  uidiv.o(.text)
    __aeabi_idiv                             0x00017629   Thumb Code     0  idiv.o(.text)
    __aeabi_idivmod                          0x00017629   Thumb Code    40  idiv.o(.text)
    __rt_ctype_table                         0x00017651   Thumb Code     4  ctype_o.o(.text)
    isspace                                  0x00017659   Thumb Code    18  isspace_o.o(.text)
    __aeabi_memcpy                           0x0001766b   Thumb Code    36  memcpya.o(.text)
    __aeabi_memcpy4                          0x0001766b   Thumb Code     0  memcpya.o(.text)
    __aeabi_memcpy8                          0x0001766b   Thumb Code     0  memcpya.o(.text)
    __aeabi_memset                           0x0001768f   Thumb Code    14  memseta.o(.text)
    __aeabi_memset4                          0x0001768f   Thumb Code     0  memseta.o(.text)
    __aeabi_memset8                          0x0001768f   Thumb Code     0  memseta.o(.text)
    __aeabi_memclr                           0x0001769d   Thumb Code     4  memseta.o(.text)
    __aeabi_memclr4                          0x0001769d   Thumb Code     0  memseta.o(.text)
    __aeabi_memclr8                          0x0001769d   Thumb Code     0  memseta.o(.text)
    _memset$wrapper                          0x000176a1   Thumb Code    18  memseta.o(.text)
    strcat                                   0x000176b3   Thumb Code    24  strcat.o(.text)
    strstr                                   0x000176cb   Thumb Code    40  strstr.o(.text)
    strlen                                   0x000176f3   Thumb Code    14  strlen.o(.text)
    strcmp                                   0x00017701   Thumb Code    28  strcmp.o(.text)
    memchr                                   0x0001771d   Thumb Code    20  memchr.o(.text)
    memcmp                                   0x00017731   Thumb Code    26  memcmp.o(.text)
    strcpy                                   0x0001774b   Thumb Code    18  strcpy.o(.text)
    __aeabi_uread4                           0x0001775d   Thumb Code    20  uread4.o(.text)
    __rt_uread4                              0x0001775d   Thumb Code     0  uread4.o(.text)
    _uread4                                  0x0001775d   Thumb Code     0  uread4.o(.text)
    __aeabi_uread8                           0x00017771   Thumb Code    28  uread8.o(.text)
    __rt_uread8                              0x00017771   Thumb Code     0  uread8.o(.text)
    _uread8                                  0x00017771   Thumb Code     0  uread8.o(.text)
    __aeabi_uwrite4                          0x0001778d   Thumb Code    18  uwrite4.o(.text)
    __rt_uwrite4                             0x0001778d   Thumb Code     0  uwrite4.o(.text)
    _uwrite4                                 0x0001778d   Thumb Code     0  uwrite4.o(.text)
    __aeabi_uwrite8                          0x0001779f   Thumb Code    30  uwrite8.o(.text)
    __rt_uwrite8                             0x0001779f   Thumb Code     0  uwrite8.o(.text)
    _uwrite8                                 0x0001779f   Thumb Code     0  uwrite8.o(.text)
    __0sscanf                                0x000177bd   Thumb Code    50  __0sscanf.o(.text)
    _scanf_int                               0x000177f9   Thumb Code   330  _scanf_int.o(.text)
    _scanf_string                            0x00017943   Thumb Code   228  _scanf_str.o(.text)
    _scanf_real                              0x00017b1f   Thumb Code     0  scanf_fp.o(.text)
    _scanf_really_real                       0x00017b1f   Thumb Code   586  scanf_fp.o(.text)
    strtol                                   0x00017d75   Thumb Code   108  strtol.o(.text)
    __aeabi_fadd                             0x00017de5   Thumb Code   162  fadd.o(.text)
    __aeabi_fsub                             0x00017e87   Thumb Code     8  fadd.o(.text)
    __aeabi_frsub                            0x00017e8f   Thumb Code     8  fadd.o(.text)
    __aeabi_fmul                             0x00017e97   Thumb Code   122  fmul.o(.text)
    __aeabi_fdiv                             0x00017f11   Thumb Code   124  fdiv.o(.text)
    __aeabi_dadd                             0x00017f8d   Thumb Code   326  dadd.o(.text)
    __aeabi_dsub                             0x000180d3   Thumb Code    12  dadd.o(.text)
    __aeabi_drsub                            0x000180df   Thumb Code    12  dadd.o(.text)
    __aeabi_dmul                             0x000180f1   Thumb Code   202  dmul.o(.text)
    __aeabi_ddiv                             0x000181c1   Thumb Code   234  ddiv.o(.text)
    __aeabi_i2f                              0x000182b1   Thumb Code    22  fflti.o(.text)
    __aeabi_ui2f                             0x000182c7   Thumb Code    14  ffltui.o(.text)
    __aeabi_ui2d                             0x000182d5   Thumb Code    24  dfltui.o(.text)
    __aeabi_f2uiz                            0x000182f1   Thumb Code    40  ffixui.o(.text)
    __aeabi_d2uiz                            0x00018319   Thumb Code    50  dfixui.o(.text)
    __aeabi_f2d                              0x00018355   Thumb Code    40  f2d.o(.text)
    __aeabi_cdcmpeq                          0x0001837d   Thumb Code     0  cdcmple.o(.text)
    __aeabi_cdcmple                          0x0001837d   Thumb Code    38  cdcmple.o(.text)
    __aeabi_cdrcmple                         0x000183a5   Thumb Code    38  cdrcmple.o(.text)
    __aeabi_d2f                              0x000183cd   Thumb Code    56  d2f.o(.text)
    __aeabi_cfcmpeq                          0x00018405   Thumb Code     0  cfcmple.o(.text)
    __aeabi_cfcmple                          0x00018405   Thumb Code    20  cfcmple.o(.text)
    __aeabi_cfrcmple                         0x00018419   Thumb Code    20  cfrcmple.o(.text)
    __aeabi_uldivmod                         0x0001842d   Thumb Code    96  uldiv.o(.text)
    __aeabi_lmul                             0x0001848d   Thumb Code   122  llmul.o(.text)
    _ll_mul                                  0x0001848d   Thumb Code     0  llmul.o(.text)
    __aeabi_llsl                             0x00018507   Thumb Code    32  llshl.o(.text)
    _ll_shift_l                              0x00018507   Thumb Code     0  llshl.o(.text)
    __aeabi_llsr                             0x00018527   Thumb Code    34  llushr.o(.text)
    _ll_ushift_r                             0x00018527   Thumb Code     0  llushr.o(.text)
    __aeabi_lasr                             0x00018549   Thumb Code    38  llsshr.o(.text)
    _ll_sshift_r                             0x00018549   Thumb Code     0  llsshr.o(.text)
    _chval                                   0x0001856f   Thumb Code    30  _chval.o(.text)
    __vfscanf_char                           0x00018599   Thumb Code    24  scanf_char.o(.text)
    _sgetc                                   0x000185b9   Thumb Code    32  _sgetc.o(.text)
    _sbackspace                              0x000185d9   Thumb Code    36  _sgetc.o(.text)
    _strtoul                                 0x000185fd   Thumb Code   166  _strtoul.o(.text)
    __strtod_int                             0x000186db   Thumb Code    92  strtod.o(.text)
    __I$use$fp                               0x00018749   Thumb Code     0  iusefp.o(.text)
    _float_round                             0x00018749   Thumb Code    16  fepilogue.o(.text)
    _float_epilogue                          0x00018759   Thumb Code   116  fepilogue.o(.text)
    _double_round                            0x000187cd   Thumb Code    26  depilogue.o(.text)
    _double_epilogue                         0x000187e7   Thumb Code   166  depilogue.o(.text)
    __aeabi_ul2d                             0x0001888d   Thumb Code    22  dfltul.o(.text)
    __aeabi_d2ulz                            0x000188a9   Thumb Code    54  dfixul.o(.text)
    __scatterload                            0x000188e9   Thumb Code    28  init.o(.text)
    __scatterload_rt2                        0x000188e9   Thumb Code     0  init.o(.text)
    __vfscanf                                0x0001890d   Thumb Code   806  _scanf.o(.text)
    __decompress                             0x00018c41   Thumb Code     0  __dczerorl.o(.text)
    __decompress0                            0x00018c41   Thumb Code    58  __dczerorl.o(.text)
    Long Thumb to Thumb Veneer to SpSub      0x00018c7d   Thumb Code    12  anon$$obj.o(Veneer$$Code)
    USB_ReqGetDescriptor                     0x00018c89   Thumb Code   252  usbcore.o(i.USB_ReqGetDescriptor)
    USB_ReqGetStatus                         0x00018da1   Thumb Code   164  usbcore.o(i.USB_ReqGetStatus)
    USB_ReqSetClrFeature                     0x00018e65   Thumb Code   216  usbcore.o(i.USB_ReqSetClrFeature)
    USB_ReqSetConfiguration                  0x00018f55   Thumb Code   402  usbcore.o(i.USB_ReqSetConfiguration)
    USB_ReqSetInterface                      0x00019111   Thumb Code   296  usbcore.o(i.USB_ReqSetInterface)
    __0sprintf$8                             0x00019251   Thumb Code    36  printf8.o(i.__0sprintf$8)
    __1sprintf$8                             0x00019251   Thumb Code     0  printf8.o(i.__0sprintf$8)
    __2sprintf                               0x00019251   Thumb Code     0  printf8.o(i.__0sprintf$8)
    __0vsprintf                              0x00019279   Thumb Code    30  printfa.o(i.__0vsprintf)
    __1vsprintf                              0x00019279   Thumb Code     0  printfa.o(i.__0vsprintf)
    __2vsprintf                              0x00019279   Thumb Code     0  printfa.o(i.__0vsprintf)
    __c89vsprintf                            0x00019279   Thumb Code     0  printfa.o(i.__0vsprintf)
    vsprintf                                 0x00019279   Thumb Code     0  printfa.o(i.__0vsprintf)
    __ARM_clz                                0x0001929d   Thumb Code    46  depilogue.o(i.__ARM_clz)
    __ARM_common_switch8                     0x000192cb   Thumb Code    28  power_management.o(i.__ARM_common_switch8)
    __aeabi_errno_addr                       0x000192e9   Thumb Code     4  errno.o(i.__aeabi_errno_addr)
    __rt_errno_addr                          0x000192e9   Thumb Code     0  errno.o(i.__aeabi_errno_addr)
    __scatterload_copy                       0x000192f1   Thumb Code    14  handlers.o(i.__scatterload_copy)
    __scatterload_null                       0x000192ff   Thumb Code     2  handlers.o(i.__scatterload_null)
    __scatterload_zeroinit                   0x00019301   Thumb Code    14  handlers.o(i.__scatterload_zeroinit)
    _is_digit                                0x00019469   Thumb Code    14  scanf_fp.o(i._is_digit)
    floor                                    0x0001a04d   Thumb Code   182  floor.o(i.floor)
    strtod                                   0x0001a119   Thumb Code    28  strtod.o(i.strtod)
    HID_ReportDescriptor                     0x0001a22c   Data          28  usbdesc.o(.constdata)
    HID_ReportDescSize                       0x0001a248   Data           2  usbdesc.o(.constdata)
    USB_DeviceDescriptor                     0x0001a24a   Data          18  usbdesc.o(.constdata)
    USB_ConfigDescriptor                     0x0001a25c   Data          42  usbdesc.o(.constdata)
    USB_StringDescriptor                     0x0001a286   Data          84  usbdesc.o(.constdata)
    USB_P_EP                                 0x0001a2dc   Data           8  usbuser.o(.constdata)
    terminateStr                             0x0001a2e4   Data           7  at_command_parser.o(.constdata)
    callPickUpBuf                            0x0001a64c   Data           6  at_command_parser.o(.constdata)
    _ytab                                    0x0001a654   Data          96  m_time.o(.constdata)
    table                                    0x0001a784   Data          50  ambo_pedometer.o(.constdata)
    __ctype_table                            0x0001a7b6   Data         129  ctype_o.o(.constdata)
    Region$$Table$$Base                      0x0001a84c   Number         0  anon$$obj.o(Region$$Table)
    Region$$Table$$Limit                     0x0001a89c   Number         0  anon$$obj.o(Region$$Table)
    flagPwrOn                                0x1ffff000   Data           1  project_main.o(.data)
    flagPwrOff                               0x1ffff001   Data           1  project_main.o(.data)
    flagInitModem                            0x1ffff002   Data           1  project_main.o(.data)
    retryInitModemTimes                      0x1ffff003   Data           1  project_main.o(.data)
    mainCnt                                  0x1ffff004   Data           4  project_main.o(.data)
    offset                                   0x1ffff008   Data           4  project_main.o(.data)
    flagAutoAnswer                           0x1ffff00c   Data           1  project_main.o(.data)
    ringingCount                             0x1ffff00d   Data           1  project_main.o(.data)
    missCall                                 0x1ffff00e   Data           1  project_main.o(.data)
    pedometerEnable                          0x1ffff00f   Data           1  project_main.o(.data)
    pedometerCntDownTime                     0x1ffff010   Data           1  project_main.o(.data)
    lpwMode                                  0x1ffff011   Data           1  power_management.o(.data)
    sosStart                                 0x1ffff012   Data           1  sos_tasks.o(.data)
    sosSession                               0x1ffff013   Data           1  sos_tasks.o(.data)
    loneWorkerSos                            0x1ffff014   Data           1  sos_tasks.o(.data)
    noMovementSos                            0x1ffff015   Data           1  sos_tasks.o(.data)
    manDownSos                               0x1ffff016   Data           1  sos_tasks.o(.data)
    sosStartCallRetry                        0x1ffff017   Data           1  sos_tasks.o(.data)
    sosCancelCall                            0x1ffff018   Data           1  sos_tasks.o(.data)
    sosSendSmsRetry                          0x1ffff019   Data           1  sos_tasks.o(.data)
    dtmfKeyPressed                           0x1ffff01a   Data           1  sos_tasks.o(.data)
    dtmfPromptRetry                          0x1ffff01b   Data           1  sos_tasks.o(.data)
    callingNumberIndex                       0x1ffff01c   Data           1  sos_tasks.o(.data)
    nextNumberIndex                          0x1ffff01d   Data           1  sos_tasks.o(.data)
    sosActionSms                             0x1ffff01e   Data           1  sos_tasks.o(.data)
    sendSosAddressSms                        0x1ffff01f   Data           1  sos_tasks.o(.data)
    sendSosGGLinkSms                         0x1ffff020   Data           1  sos_tasks.o(.data)
    sendSosEndAddressSms                     0x1ffff021   Data           1  sos_tasks.o(.data)
    sendSosEndGGLinkSms                      0x1ffff022   Data           1  sos_tasks.o(.data)
    sendSosCancelSms                         0x1ffff023   Data           1  sos_tasks.o(.data)
    sosSmsSent                               0x1ffff024   Data           1  sos_tasks.o(.data)
    sosPhase                                 0x1ffff025   Data           1  sos_tasks.o(.data)
    sosAction                                0x1ffff026   Data           1  sos_tasks.o(.data)
    sosSuccess                               0x1ffff027   Data           1  sos_tasks.o(.data)
    familyVer2Retry                          0x1ffff028   Data           1  sos_tasks.o(.data)
    sendCallMeSms                            0x1ffff029   Data           1  sos_tasks.o(.data)
    initEmergencyCall                        0x1ffff02a   Data           1  io_tasks.o(.data)
    startCallRetry                           0x1ffff02b   Data           1  io_tasks.o(.data)
    answerCallRetry                          0x1ffff02c   Data           1  io_tasks.o(.data)
    hangUpCallRetry                          0x1ffff02d   Data           1  io_tasks.o(.data)
    ringing                                  0x1ffff02e   Data           1  io_tasks.o(.data)
    requestInitDtmf                          0x1ffff02f   Data           1  io_tasks.o(.data)
    dtmfInitialized                          0x1ffff030   Data           1  io_tasks.o(.data)
    dtmfSearchKey                            0x1ffff031   Data           1  io_tasks.o(.data)
    dtmfSearchKeyPressed                     0x1ffff032   Data           1  io_tasks.o(.data)
    startSendSmsRetry                        0x1ffff033   Data           1  io_tasks.o(.data)
    smsSent                                  0x1ffff034   Data           1  io_tasks.o(.data)
    smsPauseRequest                          0x1ffff035   Data           1  io_tasks.o(.data)
    powerAndSosKeyHold3Sec                   0x1ffff036   Data           1  io_tasks.o(.data)
    powerAndSosKeyHold1Sec                   0x1ffff037   Data           1  io_tasks.o(.data)
    sosKeyPressed                            0x1ffff038   Data           1  io_tasks.o(.data)
    powerKeyHold3Sec                         0x1ffff039   Data           1  io_tasks.o(.data)
    powerKeyHold2Sec                         0x1ffff03a   Data           1  io_tasks.o(.data)
    powerKeyHold1Sec                         0x1ffff03b   Data           1  io_tasks.o(.data)
    powerKeyPressed                          0x1ffff03c   Data           1  io_tasks.o(.data)
    promptRechargeBattery                    0x1ffff03d   Data           1  io_tasks.o(.data)
    promptAlarmWarning                       0x1ffff03e   Data           1  io_tasks.o(.data)
    playBeepSound                            0x1ffff03f   Data           1  io_tasks.o(.data)
    startCall                                0x1ffff040   Data           1  io_tasks.o(.data)
    endCall                                  0x1ffff041   Data           1  io_tasks.o(.data)
    answerCall                               0x1ffff042   Data           1  io_tasks.o(.data)
    voiceCall_TaskPhase                      0x1ffff043   Data           1  io_tasks.o(.data)
    smsPhase                                 0x1ffff044   Data           1  io_tasks.o(.data)
    smsPausedPhase                           0x1ffff045   Data           1  io_tasks.o(.data)
    uploadRetry                              0x1ffff046   Data           1  upload_config_task.o(.data)
    waitingForUploadRetry                    0x1ffff047   Data           1  upload_config_task.o(.data)
    sendConfigRetry                          0x1ffff048   Data           1  upload_config_task.o(.data)
    expectedUploadOffset                     0x1ffff04a   Data           2  upload_config_task.o(.data)
    lastUploadOffset                         0x1ffff04c   Data           2  upload_config_task.o(.data)
    sendPacketRetry                          0x1ffff04e   Data           1  upload_config_task.o(.data)
    uploadSession                            0x1ffff04f   Data           1  upload_config_task.o(.data)
    uploadOffset                             0x1ffff050   Data           2  upload_config_task.o(.data)
    uploadDataLen                            0x1ffff052   Data           2  upload_config_task.o(.data)
    cfgSize                                  0x1ffff054   Data           2  upload_config_task.o(.data)
    upConf_TaskPhase                         0x1ffff056   Data           1  upload_config_task.o(.data)
    gpsTimeSec                               0x1ffff058   Data           4  gps_task.o(.data)
    gpsInterval                              0x1ffff05c   Data           4  gps_task.o(.data)
    GPS_timeoutCheck                         0x1ffff060   Data           4  gps_task.o(.data)
    GPS_timeCnt                              0x1ffff064   Data           4  gps_task.o(.data)
    movementToCheckGps                       0x1ffff068   Data           1  gps_task.o(.data)
    timeGetGPS                               0x1ffff069   Data           1  gps_task.o(.data)
    lastGpsGotTime                           0x1ffff06c   Data           4  gps_task.o(.data)
    GPS_phase                                0x1ffff070   Data           1  gps_task.o(.data)
    serverWaitGpsFlag                        0x1ffff071   Data           1  gps_task.o(.data)
    gpsSleepCntTime                          0x1ffff074   Data           4  gps_task.o(.data)
    lastGpsFixed                             0x1ffff078   Data           1  gps_task.o(.data)
    gpsPromptFlag                            0x1ffff079   Data           1  gps_task.o(.data)
    saveGpsFlag                              0x1ffff07a   Data           1  gps_task.o(.data)
    sendGpsFlag                              0x1ffff07b   Data           1  gps_task.o(.data)
    flagSaveLog                              0x1ffff07c   Data           4  gps_task.o(.data)
    flagSaveTime                             0x1ffff080   Data           1  gps_task.o(.data)
    gpsPedometerFlag                         0x1ffff081   Data           1  gps_task.o(.data)
    intervalPedometerFlag                    0x1ffff082   Data           1  gps_task.o(.data)
    currentSpeed                             0x1ffff084   Data           4  gps_task.o(.data)
    llwuSource                               0x1ffff088   Data           4  llwu.o(.data)
    lpwTimerCnt                              0x1ffff08c   Data           1  llwu.o(.data)
    Data1                                    0x1ffff090   Data           4  usbhw.o(.data)
    OutEpSize                                0x1ffff094   Data           3  usbhw.o(.data)
    cellLocationFlag                         0x1ffff098   Data           1  at_command_parser.o(.data)
    smsCnt                                   0x1ffff09c   Data           4  at_command_parser.o(.data)
    smsNewMessageFlag                        0x1ffff0a0   Data           4  at_command_parser.o(.data)
    ringFlag                                 0x1ffff0a4   Data           4  at_command_parser.o(.data)
    pickUpCallFlag                           0x1ffff0a8   Data           1  at_command_parser.o(.data)
    smsSentFlag                              0x1ffff0a9   Data           1  at_command_parser.o(.data)
    smsModemAccept                           0x1ffff0aa   Data           1  at_command_parser.o(.data)
    inCalling                                0x1ffff0ab   Data           1  at_command_parser.o(.data)
    busyFlag                                 0x1ffff0ac   Data           1  at_command_parser.o(.data)
    noAnswerFlag                             0x1ffff0ad   Data           1  at_command_parser.o(.data)
    callUnsuccess                            0x1ffff0ae   Data           1  at_command_parser.o(.data)
    incomingCall                             0x1ffff0af   Data           1  at_command_parser.o(.data)
    getIncomingNumber                        0x1ffff0b0   Data           1  at_command_parser.o(.data)
    farHangUp                                0x1ffff0b1   Data           1  at_command_parser.o(.data)
    extendedErrorCode                        0x1ffff0b2   Data           2  at_command_parser.o(.data)
    gprsDeactivationFlag                     0x1ffff0b4   Data           1  at_command_parser.o(.data)
    gprsDataOffset                           0x1ffff0b8   Data           4  at_command_parser.o(.data)
    tcpSocketStatus                          0x1ffff0bc   Data           4  at_command_parser.o(.data)
    createSocketNow                          0x1ffff0c0   Data           1  at_command_parser.o(.data)
    socketRecvEnable                         0x1ffff0c4   Data           4  at_command_parser.o(.data)
    socketNo                                 0x1ffff0c8   Data           4  at_command_parser.o(.data)
    tcpTimeReCheckData                       0x1ffff0cc   Data           4  at_command_parser.o(.data)
    commandSeparator                         0x1ffff0d0   Data           4  at_command_parser.o(.data)
    gsmGetTimeFlag                           0x1ffff0d4   Data           1  at_command_parser.o(.data)
    pickUpPos                                0x1ffff0d5   Data           1  at_command_parser.o(.data)
    dataPhase                                0x1ffff0d6   Data           1  at_command_parser.o(.data)
    flagSmsReadFinish                        0x1ffff0d7   Data           1  at_command_parser.o(.data)
    gprsRecvPt                               0x1ffff10c   Data           4  at_command_parser.o(.data)
    gprsRecvDataLen                          0x1ffff110   Data           4  at_command_parser.o(.data)
    GPRS_dataUnackLength                     0x1ffff114   Data           4  at_command_parser.o(.data)
    socketMask                               0x1ffff118   Data           1  at_command_parser.o(.data)
    sysGsmTime                               0x1ffff119   Data           8  at_command_parser.o(.data)
    sysUploadConfig                          0x1ffff121   Data           1  system_config.o(.data)
    _daylight                                0x1ffff124   Data           4  m_time.o(.data)
    _dstbias                                 0x1ffff128   Data           4  m_time.o(.data)
    _timezone                                0x1ffff12c   Data           4  m_time.o(.data)
    gpsCheckSum                              0x1ffff134   Data           1  gps.o(.data)
    gpsCheckSumX                             0x1ffff135   Data           1  gps.o(.data)
    gpsGetCheckSumFlag                       0x1ffff136   Data           1  gps.o(.data)
    GPRMC_gotDataFlag                        0x1ffff137   Data           1  gps.o(.data)
    GPGGA_gotDataFlag                        0x1ffff138   Data           1  gps.o(.data)
    GPGSA_gotDataFlag                        0x1ffff139   Data           1  gps.o(.data)
    GPGSV_gotDataFlag                        0x1ffff13a   Data           1  gps.o(.data)
    msgGpsDataGood                           0x1ffff13b   Data           1  gps.o(.data)
    GPS_cmdState                             0x1ffff13c   Data           1  gps.o(.data)
    pPackGPRMC                               0x1ffff140   Data           4  gps.o(.data)
    pPackGPGGA                               0x1ffff144   Data           4  gps.o(.data)
    pPackGPGSA                               0x1ffff148   Data           4  gps.o(.data)
    pPackGPGSV                               0x1ffff14c   Data           4  gps.o(.data)
    GPS_numCmd                               0x1ffff150   Data           1  gps.o(.data)
    GPS_cmdRecvLength                        0x1ffff154   Data           4  gps.o(.data)
    adcInit                                  0x1ffff158   Data           1  audio.o(.data)
    tmp1_cnt                                 0x1ffff15c   Data           4  audio.o(.data)
    tmp1_cnt1                                0x1ffff160   Data           4  audio.o(.data)
    i16Temp                                  0x1ffff164   Data           2  ambo_pedometer.o(.data)
    first_loop                               0x1ffff168   Data           2  ambo_pedometer.o(.data)
    step_cnt                                 0x1ffff16a   Data           2  ambo_pedometer.o(.data)
    cnt                                      0x1ffff16c   Data           2  ambo_pedometer.o(.data)
    prev_cnt                                 0x1ffff16e   Data           2  ambo_pedometer.o(.data)
    cnt_flg                                  0x1ffff170   Data           2  ambo_pedometer.o(.data)
    cnt_trip                                 0x1ffff172   Data           2  ambo_pedometer.o(.data)
    disp_trip                                0x1ffff174   Data           2  ambo_pedometer.o(.data)
    i                                        0x1ffff176   Data           2  ambo_pedometer.o(.data)
    g_index                                  0x1ffff178   Data           2  ambo_pedometer.o(.data)
    reset_time                               0x1ffff17a   Data           2  ambo_pedometer.o(.data)
    length_g                                 0x1ffff17c   Data           2  ambo_pedometer.o(.data)
    pos_flg                                  0x1ffff17e   Data           2  ambo_pedometer.o(.data)
    vcnt_up                                  0x1ffff180   Data           2  ambo_pedometer.o(.data)
    vcnt_dn                                  0x1ffff182   Data           2  ambo_pedometer.o(.data)
    strt_trip                                0x1ffff184   Data           2  ambo_pedometer.o(.data)
    up_flg                                   0x1ffff186   Data           2  ambo_pedometer.o(.data)
    dn_flg                                   0x1ffff188   Data           2  ambo_pedometer.o(.data)
    cnt_dn                                   0x1ffff18a   Data           2  ambo_pedometer.o(.data)
    no_cnt_flg                               0x1ffff18c   Data           2  ambo_pedometer.o(.data)
    g_prev                                   0x1ffff18e   Data           2  ambo_pedometer.o(.data)
    i32Temp                                  0x1ffff190   Data           4  ambo_pedometer.o(.data)
    acclInit                                 0x1ffff194   Data           4  pedometer_task.o(.data)
    acclFlag                                 0x1ffff198   Data           1  pedometer_task.o(.data)
    Pedometer                                0x1ffff19a   Data           6  pedometer_task.o(.data)
    devicePosition                           0x1ffff1a0   Data           1  pedometer_task.o(.data)
    tSosTaskTimeOut                          0x1ffff1a8   Data          12  sos_tasks.o(.bss)
    tPromptStandByTimeOut                    0x1ffff1b4   Data          12  sos_tasks.o(.bss)
    tPromptCallBackTimeOut                   0x1ffff1c0   Data          12  sos_tasks.o(.bss)
    tWaitForCallTimeOut                      0x1ffff1cc   Data          12  sos_tasks.o(.bss)
    tWaitDtmfKeyPressTimeout                 0x1ffff1d8   Data          12  sos_tasks.o(.bss)
    tDtmfPromptTimeout                       0x1ffff1e4   Data          12  sos_tasks.o(.bss)
    tWaitCallAnswer                          0x1ffff1f0   Data          12  sos_tasks.o(.bss)
    tWaitModemInitTimeout                    0x1ffff1fc   Data          12  sos_tasks.o(.bss)
    callerPhoneNo                            0x1ffff208   Data          16  sos_tasks.o(.bss)
    addressData                              0x1ffff218   Data         110  sos_tasks.o(.bss)
    sosStartTime                             0x1ffff286   Data           9  sos_tasks.o(.bss)
    sosEndTime                               0x1ffff28f   Data           9  sos_tasks.o(.bss)
    sosStartLocation                         0x1ffff298   Data          22  sos_tasks.o(.bss)
    sosEndLocation                           0x1ffff2ae   Data          22  sos_tasks.o(.bss)
    tVoiceCallTaskTimeOut                    0x1ffff2c4   Data          12  io_tasks.o(.bss)
    tCallRingCheckTimeOut                    0x1ffff2d0   Data          12  io_tasks.o(.bss)
    tVoiceCallRetryTimeOut                   0x1ffff2dc   Data          12  io_tasks.o(.bss)
    tStartCallErrorTimeOut                   0x1ffff2e8   Data          12  io_tasks.o(.bss)
    tSmsTaskTimeOut                          0x1ffff2f4   Data          12  io_tasks.o(.bss)
    tSmsCheckTimeOut                         0x1ffff300   Data          12  io_tasks.o(.bss)
    tSmsWaitPauseTimeOut                     0x1ffff30c   Data          12  io_tasks.o(.bss)
    tPowerOffTimeOut                         0x1ffff318   Data          12  io_tasks.o(.bss)
    tWaitCallActionTimeOut                   0x1ffff324   Data          12  io_tasks.o(.bss)
    dialingPhoneNumber                       0x1ffff330   Data          16  io_tasks.o(.bss)
    incomingCallPhoneNo                      0x1ffff340   Data          16  io_tasks.o(.bss)
    smsSend                                  0x1ffff350   Data         272  io_tasks.o(.bss)
    USART0_RxBuff                            0x1ffff460   Data          64  uart.o(.bss)
    USART1_RxBuff                            0x1ffff4a0   Data         256  uart.o(.bss)
    USART0_RxRingBuff                        0x1ffff5a0   Data          16  uart.o(.bss)
    USART1_RxRingBuff                        0x1ffff5b0   Data          16  uart.o(.bss)
    EP0Buf                                   0x1ffff5c0   Data          64  usbcore.o(.bss)
    smsUnreadBuff                            0x1ffff600   Data          32  at_command_parser.o(.bss)
    gprsLengthBuff                           0x1ffff620   Data          16  at_command_parser.o(.bss)
    cellLocationBuf                          0x1ffff630   Data         128  at_command_parser.o(.bss)
    smsBuf                                   0x1ffff6b0   Data         255  at_command_parser.o(.bss)
    smsSender                                0x1ffff7af   Data          18  at_command_parser.o(.bss)
    smsUnreadRingBuff                        0x1ffff7c4   Data          16  at_command_parser.o(.bss)
    gprsRingLengthBuff                       0x1ffff7d4   Data          16  at_command_parser.o(.bss)
    DNS_serverIp                             0x1ffff7e4   Data          16  at_command_parser.o(.bss)
    cmdCnt                                   0x1ffff7f4   Data          24  at_command_parser.o(.bss)
    AT_CmdParser                             0x1ffff80c   Data          16  at_command_parser.o(.bss)
    trackerLog                               0x1ffff81c   Data          34  db.o(.bss)
    dbTimeZone                               0x1ffff840   Data          12  db.o(.bss)
    pwrStatus                                0x1ffff84c   Data          12  db.o(.bss)
    gpsLat                                   0x1ffff858   Data          12  db.o(.bss)
    gpsLon                                   0x1ffff864   Data          12  db.o(.bss)
    gpsHDOP                                  0x1ffff870   Data          12  db.o(.bss)
    gpsDir                                   0x1ffff87c   Data          12  db.o(.bss)
    cellLat                                  0x1ffff888   Data          12  db.o(.bss)
    cellLon                                  0x1ffff894   Data          12  db.o(.bss)
    cellHDOP                                 0x1ffff8a0   Data          12  db.o(.bss)
    cellDir                                  0x1ffff8ac   Data          12  db.o(.bss)
    timeSave                                 0x1ffff8b8   Data          12  db.o(.bss)
    key                                      0x1ffff8c4   Data          56  tick.o(.bss)
    SpSub                                    0x20000001   Thumb Code    26  flash_ramfunc.o(.text)
    gprs_Task                                0x20000020   Data           1  gsm_gprs_tasks.o(.data)
    sendPowerCmd_TaskPhase                   0x20000021   Data           1  gsm_gprs_tasks.o(.data)
    sendGpsData_TaskPhase                    0x20000022   Data           1  gsm_gprs_tasks.o(.data)
    priDServer                               0x20000023   Data           1  gsm_gprs_tasks.o(.data)
    priFServer                               0x20000024   Data           1  gsm_gprs_tasks.o(.data)
    taskRetry                                0x20000025   Data           1  gsm_gprs_tasks.o(.data)
    createSocketConError                     0x20000026   Data           1  gsm_gprs_tasks.o(.data)
    msgSentCnt                               0x20000027   Data           1  gsm_gprs_tasks.o(.data)
    tcpResendDataTimes                       0x20000028   Data           1  gsm_gprs_tasks.o(.data)
    gprsDataLength                           0x2000002c   Data           4  gsm_gprs_tasks.o(.data)
    sosDataLength                            0x20000030   Data           4  gsm_gprs_tasks.o(.data)
    enableGprsRetry                          0x20000034   Data           1  gsm_gprs_tasks.o(.data)
    serverConnectRetry                       0x20000035   Data           1  gsm_gprs_tasks.o(.data)
    gprsSendDataRetry                        0x20000036   Data           1  gsm_gprs_tasks.o(.data)
    registerNetworkRetry                     0x20000037   Data           1  gsm_gprs_tasks.o(.data)
    isPowerOffCmd                            0x20000038   Data           1  gsm_gprs_tasks.o(.data)
    gprsProfileEnabled                       0x20000039   Data           1  gsm_gprs_tasks.o(.data)
    sendFirstPacket                          0x2000003a   Data           1  gsm_gprs_tasks.o(.data)
    svUseIP                                  0x2000003b   Data           1  gsm_gprs_tasks.o(.data)
    priServerIp                              0x2000003c   Data           4  gsm_gprs_tasks.o(.data)
    priServerPort                            0x20000040   Data           2  gsm_gprs_tasks.o(.data)
    gsm_TaskPhase                            0x20000042   Data           1  gsm_gprs_tasks.o(.data)
    tcpAckCheckTimes                         0x20000043   Data           1  gsm_gprs_tasks.o(.data)
    mcg_clk_hz                               0x20000044   Data           4  sysinit.o(.data)
    mcg_clk_khz                              0x20000048   Data           4  sysinit.o(.data)
    core_clk_khz                             0x2000004c   Data           4  sysinit.o(.data)
    periph_clk_khz                           0x20000050   Data           4  sysinit.o(.data)
    pll_clk_khz                              0x20000054   Data           4  sysinit.o(.data)
    uart0_clk_khz                            0x20000058   Data           4  sysinit.o(.data)
    SystemCoreClock                          0x2000005c   Data           4  system_mkl25z4.o(.data)
    USB_DeviceStatus                         0x20000060   Data           2  usbcore.o(.data)
    USB_DeviceAddress                        0x20000062   Data           1  usbcore.o(.data)
    USB_Configuration                        0x20000063   Data           1  usbcore.o(.data)
    USB_EndPointMask                         0x20000064   Data           4  usbcore.o(.data)
    USB_EndPointHalt                         0x20000068   Data           4  usbcore.o(.data)
    USB_EndPointStall                        0x2000006c   Data           4  usbcore.o(.data)
    USB_NumInterfaces                        0x20000070   Data           1  usbcore.o(.data)
    USB_AltSetting                           0x20000071   Data           2  usbcore.o(.data)
    EP0Data                                  0x20000074   Data           8  usbcore.o(.data)
    SetupPacket                              0x2000007c   Data           8  usbcore.o(.data)
    HID_DepInEmpty                           0x20000084   Data           1  hiduser.o(.data)
    HID_Protocol                             0x20000085   Data           1  hiduser.o(.data)
    HID_IdleTime                             0x20000086   Data           1  hiduser.o(.data)
    countErrTemp                             0x20000088   Data           4  sst25.o(.data)
    modemOk                                  0x2000008c   Data           4  modem.o(.data)
    modemError                               0x20000090   Data           4  modem.o(.data)
    modemRinging                             0x20000094   Data           1  modem.o(.data)
    modemStarted                             0x20000095   Data           1  modem.o(.data)
    csqValue                                 0x20000098   Data           4  modem.o(.data)
    gsmSignal                                0x2000009c   Data           1  modem.o(.data)
    batteryPercent                           0x200000a0   Data           4  modem.o(.data)
    agpsRestartCnt                           0x200000a4   Data           4  modem.o(.data)
    flagGsmStatus                            0x200000a8   Data           1  modem.o(.data)
    criticalCmd                              0x200000a9   Data           1  modem.o(.data)
    modemCmd_TaskPhase                       0x200000aa   Data           1  modem.o(.data)
    cmdRetry                                 0x200000ab   Data           1  modem.o(.data)
    cmdTimeout                               0x200000ac   Data           4  modem.o(.data)
    cmdDelay                                 0x200000b0   Data           4  modem.o(.data)
    cmdTimeoutCount                          0x200000b4   Data           1  modem.o(.data)
    modemCancel                              0x200000b5   Data           1  modem.o(.data)
    cellPass                                 0x200000b8   Data           4  modem.o(.data)
    modemCmpOk                               0x200000bc   Data           8  modem.o(.data)
    modemCmpFails                            0x200000c4   Data           8  modem.o(.data)
    timeZone                                 0x200000cc   Data           4  sys_time.o(.data)
    sysTime                                  0x200000d0   Data           8  sys_time.o(.data)
    logPositionCnt                           0x200000d8   Data           4  db.o(.data)
    flagNewLog                               0x200000dc   Data           4  db.o(.data)
    mileageCnt                               0x200000e0   Data           4  db.o(.data)
    totalPulse                               0x200000e4   Data           4  db.o(.data)
    totalPulseCnt                            0x200000e8   Data           4  db.o(.data)
    resetCnt                                 0x200000ec   Data           4  db.o(.data)
    mileage                                  0x200000f0   Data           4  db.o(.data)
    resetNum                                 0x200000f4   Data           4  db.o(.data)
    timer0Cnt                                0x200000f8   Data           4  tracker.o(.data)
    gsmTimeSec                               0x200000fc   Data           4  tracker.o(.data)
    hasMoved                                 0x20000100   Data           1  tracker.o(.data)
    trackerEnable                            0x20000101   Data           1  tracker.o(.data)
    sendCellFlag                             0x20000102   Data           1  tracker.o(.data)
    rtcTimeSec                               0x20000108   Data           4  tick.o(.data)
    tickCounter32                            0x2000010c   Data           4  tick.o(.data)
    tickCounter64                            0x20000110   Data           8  tick.o(.data)
    calibFlag                                0x20000118   Data           4  tick.o(.data)
    LPTM_calibValue                          0x2000011c   Data           4  tick.o(.data)
    LPT_tickSec                              0x20000120   Data           4  tick.o(.data)
    LPTM_CalcOk                              0x20000124   Data           4  tick.o(.data)
    loneWorkerCountdownCnt                   0x20000128   Data           4  tick.o(.data)
    loneWorkerIntervalCnt                    0x2000012c   Data           4  tick.o(.data)
    loneWorkerAlarmActiveFlag                0x20000130   Data           1  tick.o(.data)
    loneWorkerWarningFlag                    0x20000131   Data           1  tick.o(.data)
    flagLoneWorkerReset                      0x20000132   Data           1  tick.o(.data)
    noMovementCountdownCnt                   0x20000134   Data           4  tick.o(.data)
    noMovementIntervalCnt                    0x20000138   Data           4  tick.o(.data)
    noMovementAlarmActiveFlag                0x2000013c   Data           1  tick.o(.data)
    noMovementWarningFlag                    0x2000013d   Data           1  tick.o(.data)
    flagNoMovementReset                      0x2000013e   Data           1  tick.o(.data)
    manDownCountdownCnt                      0x2000013f   Data           1  tick.o(.data)
    manDownIntervalCnt                       0x20000140   Data           4  tick.o(.data)
    manDownAlarmActiveFlag                   0x20000144   Data           1  tick.o(.data)
    manDownWarningFlag                       0x20000145   Data           1  tick.o(.data)
    flagManDownReset                         0x20000146   Data           1  tick.o(.data)
    ringingDetectFlag                        0x20000147   Data           1  tick.o(.data)
    ringingCountDown                         0x20000148   Data           1  tick.o(.data)
    ringingFlag                              0x20000149   Data           1  tick.o(.data)
    LPTcnt                                   0x2000014c   Data           4  tick.o(.data)
    ledControlEnable                         0x20000150   Data           1  tick.o(.data)
    powerOnLedFlash                          0x20000151   Data           1  tick.o(.data)
    powerOnLedFlashCnt                       0x20000152   Data           2  tick.o(.data)
    redLedFlashCnt                           0x20000154   Data           2  tick.o(.data)
    greenLedFlashCnt                         0x20000156   Data           2  tick.o(.data)
    blueLedFlashCnt                          0x20000158   Data           2  tick.o(.data)
    PIT_cntValue                             0x2000015c   Data           4  tick.o(.data)
    timer1Cnt                                0x20000160   Data           4  dbg_cfg_app.o(.data)
    request                                  0x20000164   Data           1  dbg_cfg_app.o(.data)
    oldPacketNo                              0x20000168   Data           4  dbg_cfg_app.o(.data)
    packetStatus                             0x2000016c   Data           4  dbg_cfg_app.o(.data)
    logEnable                                0x20000170   Data           1  dbg_cfg_app.o(.data)
    usbRecv                                  0x20000171   Data           1  dbg_cfg_app.o(.data)
    PrevXferComplete                         0x20000172   Data           1  dbg_cfg_app.o(.data)
    enableUSB_Manager                        0x20000174   Data           4  dbg_cfg_app.o(.data)
    testBitsUart0                            0x20000178   Data           4  dbg_cfg_app.o(.data)
    testBitsUart1                            0x2000017c   Data           4  dbg_cfg_app.o(.data)
    packetLen                                0x20000184   Data           4  dbg_cfg_app.o(.data)
    vpacketNo                                0x20000188   Data           4  dbg_cfg_app.o(.data)
    packetPtr                                0x2000018c   Data           4  dbg_cfg_app.o(.data)
    recordFileSize                           0x20000190   Data           4  dbg_cfg_app.o(.data)
    recordFileOfset                          0x20000194   Data           4  dbg_cfg_app.o(.data)
    timer2Cnt                                0x20000198   Data           4  dbg_cfg_app.o(.data)
    flashAddr                                0x2000019c   Data           4  dbg_cfg_app.o(.data)
    flashDataPt                              0x200001a0   Data           4  dbg_cfg_app.o(.data)
    flashDataLen                             0x200001a4   Data           2  dbg_cfg_app.o(.data)
    flashWriteFlag                           0x200001a6   Data           1  dbg_cfg_app.o(.data)
    flashReadFlag                            0x200001a7   Data           1  dbg_cfg_app.o(.data)
    dail1                                    0x200001c0   Data         532  dtmf_app.o(.data)
    DEMF_Enable                              0x200003d4   Data           1  dtmf_app.o(.data)
    tSMSCheckTimeout                         0x200003d8   Data          12  project_main.o(.bss)
    tSleepTimeout                            0x200003e4   Data          12  project_main.o(.bss)
    sdfs                                     0x200003f0   Data         552  project_common.o(.bss)
    mainBuf                                  0x20000618   Data        1280  project_common.o(.bss)
    tTaskPhaseTimeOut                        0x20000b18   Data          12  gsm_gprs_tasks.o(.bss)
    tCheckAckTimeOut                         0x20000b24   Data          12  gsm_gprs_tasks.o(.bss)
    tCollectDataTimeOut                      0x20000b30   Data          12  gsm_gprs_tasks.o(.bss)
    tGsmTaskPhaseTimeOut                     0x20000b3c   Data          12  gsm_gprs_tasks.o(.bss)
    tWaitSendDataTimeOut                     0x20000b48   Data          12  gsm_gprs_tasks.o(.bss)
    gprsData                                 0x20000b54   Data         560  gsm_gprs_tasks.o(.bss)
    mainBuf1                                 0x20000d84   Data         256  gsm_gprs_tasks.o(.bss)
    sosData                                  0x20000e84   Data         256  gsm_gprs_tasks.o(.bss)
    tUploadConfigTimeout                     0x20000f84   Data          12  upload_config_task.o(.bss)
    BD                                       0x20001000   Data          96  usbhw.o(.bss)
    EPBuf                                    0x20001060   Data         768  usbhw.o(.bss)
    HID_TxBuff                               0x20001360   Data         256  hiduser.o(.bss)
    HID_RxBuff                               0x20001460   Data          64  hiduser.o(.bss)
    HID_TxRingBuff                           0x200014a0   Data          16  hiduser.o(.bss)
    HID_RxRingBuff                           0x200014b0   Data          16  hiduser.o(.bss)
    modemId                                  0x20001540   Data          16  modem.o(.bss)
    csqBuff                                  0x20001550   Data          16  modem.o(.bss)
    modemAtCmdBuf                            0x20001560   Data         128  modem.o(.bss)
    tModemAtTimeout                          0x200015e0   Data          12  modem.o(.bss)
    tModemCancelTimeout                      0x200015ec   Data          12  modem.o(.bss)
    modemResOkBuf                            0x200015f8   Data          32  modem.o(.bss)
    modemResFailsBuf                         0x20001618   Data          32  modem.o(.bss)
    cellLocate                               0x20001638   Data          64  modem.o(.bss)
    sysCfg                                   0x20001678   Data        1254  system_config.o(.bss)
    logRecord                                0x20001b5e   Data          76  tracker.o(.bss)
    logRecordTemp                            0x20001baa   Data          76  tracker.o(.bss)
    trackerMsg                               0x20001bf6   Data         231  tracker.o(.bss)
    buffGPRMC                                0x20001ce0   Data          80  gps.o(.bss)
    buffGPGGA                                0x20001d30   Data          80  gps.o(.bss)
    buffGPGSA                                0x20001d80   Data          80  gps.o(.bss)
    buffGPGSV                                0x20001dd0   Data          80  gps.o(.bss)
    msgTerm                                  0x20001e20   Data          80  gps.o(.bss)
    GPS_Buff                                 0x20001e70   Data         128  gps.o(.bss)
    gpsInfo                                  0x20001ef0   Data         144  gps.o(.bss)
    lastGpsInfo                              0x20001f80   Data         144  gps.o(.bss)
    GPS_cmdCnt                               0x20002010   Data          16  gps.o(.bss)
    USB_ProtoRecv                            0x20002120   Data          16  dbg_cfg_app.o(.bss)
    USB_ProtoSend                            0x20002130   Data          16  dbg_cfg_app.o(.bss)
    USB_DataBuff                             0x20002140   Data          36  dbg_cfg_app.o(.bss)
    USB_parserPacket                         0x20002164   Data          10  dbg_cfg_app.o(.bss)
    comBuf                                   0x2000216e   Data         256  dbg_cfg_app.o(.bss)
    comRingBuf                               0x20002270   Data          16  dbg_cfg_app.o(.bss)
    cfgSendData                              0x20002280   Data          12  dbg_cfg_app.o(.bss)
    pt                                       0x2000228c   Data          12  dbg_cfg_app.o(.bss)
    audio                                    0x200024b4   Data         200  audio.o(.bss)
    audioPlayRingBuff                        0x2000257c   Data          16  audio.o(.bss)
    audioPlayBuf                             0x2000258c   Data         128  audio.o(.bss)
    DTMF_ringBuff                            0x2000260c   Data          16  dtmf_app.o(.bss)
    DTMF_buf                                 0x2000261c   Data          32  dtmf_app.o(.bss)
    sample_x                                 0x2000273c   Data         100  ambo_pedometer.o(.bss)
    sample_y                                 0x200027a0   Data         100  ambo_pedometer.o(.bss)
    sample_z                                 0x20002804   Data         100  ambo_pedometer.o(.bss)
    sample_x_t                               0x20002868   Data          48  ambo_pedometer.o(.bss)
    sample_y_t                               0x20002898   Data          48  ambo_pedometer.o(.bss)
    sample_z_t                               0x200028c8   Data          48  ambo_pedometer.o(.bss)
    g                                        0x200028f8   Data          76  ambo_pedometer.o(.bss)
    g_temp                                   0x20002944   Data          24  ambo_pedometer.o(.bss)
    xl362                                    0x2000295c   Data          16  pedometer_task.o(.bss)
    __initial_sp                             0x20002ff8   Number         0  startup_mkl25z4.o ABSOLUTE



==============================================================================

Memory Map of the image

  Image Entry point : 0x00000411

  Load Region LR_IROM1 (Base: 0x00000000, Size: 0x0001ae1c, Max: 0x00020000, ABSOLUTE, COMPRESSED[0x0001a934])

    Execution Region ER_IROM1 (Base: 0x00000000, Size: 0x0001a89c, Max: 0x00020000, ABSOLUTE)

    Base Addr    Size         Type   Attr      Idx    E Section Name        Object

    0x00000000   0x00000400   Data   RO          611    RESET               startup_mkl25z4.o
    0x00000400   0x00000010   Code   RO          612    .ARM.__at_0x400     startup_mkl25z4.o
    0x00000410   0x00000000   Code   RO         1614  * .ARM.Collect$$$$00000000  mc_p.l(entry.o)
    0x00000410   0x00000004   Code   RO         1984    .ARM.Collect$$$$00000001  mc_p.l(entry2.o)
    0x00000414   0x00000004   Code   RO         1987    .ARM.Collect$$$$00000004  mc_p.l(entry5.o)
    0x00000418   0x00000000   Code   RO         1989    .ARM.Collect$$$$00000008  mc_p.l(entry7b.o)
    0x00000418   0x00000000   Code   RO         1991    .ARM.Collect$$$$0000000A  mc_p.l(entry8b.o)
    0x00000418   0x00000008   Code   RO         1992    .ARM.Collect$$$$0000000B  mc_p.l(entry9a.o)
    0x00000420   0x00000000   Code   RO         1994    .ARM.Collect$$$$0000000D  mc_p.l(entry10a.o)
    0x00000420   0x00000000   Code   RO         1996    .ARM.Collect$$$$0000000F  mc_p.l(entry11a.o)
    0x00000420   0x00000004   Code   RO         1985    .ARM.Collect$$$$00002712  mc_p.l(entry2.o)
    0x00000424   0x00000b54   Code   RO            3    .text               project_main.o
    0x00000f78   0x0000088c   Code   RO          299    .text               power_management.o
    0x00001804   0x00001fc4   Code   RO          342    .text               gsm_gprs_tasks.o
    0x000037c8   0x00000dc0   Code   RO          379    .text               sos_tasks.o
    0x00004588   0x00001a30   Code   RO          417    .text               io_tasks.o
    0x00005fb8   0x00000c68   Code   RO          446    .text               upload_config_task.o
    0x00006c20   0x00000440   Code   RO          471    .text               gps_task.o
    0x00007060   0x0000017c   Code   RO          510    .text               start.o
    0x000071dc   0x00000104   Code   RO          533    .text               sysinit.o
    0x000072e0   0x00000214   Code   RO          559    .text               system_mkl25z4.o
    0x000074f4   0x00000060   Code   RO          591    .text               nmi_isr_handler.o
    0x00007554   0x0000001c   Code   RO          613    .text               startup_mkl25z4.o
    0x00007570   0x00000378   Code   RO          621    .text               llwu.o
    0x000078e8   0x00001ea8   Code   RO          652    .text               mcg.o
    0x00009790   0x00000002   Code   RO          676    .text               rcm.o
    0x00009792   0x00000002   PAD
    0x00009794   0x00000358   Code   RO          696    .text               smc.o
    0x00009aec   0x00000454   Code   RO          716    .text               uart.o
    0x00009f40   0x000000f8   Code   RO          769    .text               spi.o
    0x0000a038   0x000001a0   Code   RO          809    .text               flash_ftfa.o
    0x0000a1d8   0x000003c0   Code   RO          856    .text               usbcore.o
    0x0000a598   0x00000680   Code   RO          930    .text               usbhw.o
    0x0000ac18   0x00000044   Code   RO          975    .text               usbuser.o
    0x0000ac5c   0x00000098   Code   RO         1002    .text               ringbuf.o
    0x0000acf4   0x0000010c   Code   RO         1016    .text               hiduser.o
    0x0000ae00   0x000002c4   Code   RO         1043    .text               sst25.o
    0x0000b0c4   0x00000c18   Code   RO         1066    .text               modem.o
    0x0000bcdc   0x00003234   Code   RO         1099    .text               at_command_parser.o
    0x0000ef10   0x00000b64   Code   RO         1133    .text               system_config.o
    0x0000fa74   0x00000618   Code   RO         1158    .text               m_time.o
    0x0001008c   0x00000258   Code   RO         1177    .text               sys_time.o
    0x000102e4   0x00000158   Code   RO         1208    .text               string_parser.o
    0x0001043c   0x00000b6c   Code   RO         1223    .text               db.o
    0x00010fa8   0x0000076c   Code   RO         1250    .text               tracker.o
    0x00011714   0x000010d0   Code   RO         1279    .text               gprs_cmd_ctrl.o
    0x000127e4   0x00000f24   Code   RO         1298    .text               gps.o
    0x00013708   0x00000bb0   Code   RO         1328    .text               tick.o
    0x000142b8   0x00000d30   Code   RO         1363    .text               dbg_cfg_app.o
    0x00014fe8   0x00000092   Code   RO         1397    .text               diskio.o
    0x0001507a   0x00000002   PAD
    0x0001507c   0x00000c34   Code   RO         1412    .text               ff.o
    0x00015cb0   0x00000094   Code   RO         1429    .text               flash_mem.o
    0x00015d44   0x000008fc   Code   RO         1449    .text               audio.o
    0x00016640   0x00000210   Code   RO         1476    .text               dtmf_app.o
    0x00016850   0x000003d0   Code   RO         1509    .text               dtmf.o
    0x00016c20   0x00000144   Code   RO         1538    .text               xl362_io.o
    0x00016d64   0x000005cc   Code   RO         1556    .text               ambo_pedometer.o
    0x00017330   0x000002cc   Code   RO         1578    .text               pedometer_task.o
    0x000175fc   0x0000002c   Code   RO         1617    .text               mc_p.l(uidiv.o)
    0x00017628   0x00000028   Code   RO         1619    .text               mc_p.l(idiv.o)
    0x00017650   0x00000008   Code   RO         1621    .text               mc_p.l(ctype_o.o)
    0x00017658   0x00000012   Code   RO         1643    .text               mc_p.l(isspace_o.o)
    0x0001766a   0x00000024   Code   RO         1649    .text               mc_p.l(memcpya.o)
    0x0001768e   0x00000024   Code   RO         1651    .text               mc_p.l(memseta.o)
    0x000176b2   0x00000018   Code   RO         1653    .text               mc_p.l(strcat.o)
    0x000176ca   0x00000028   Code   RO         1655    .text               mc_p.l(strstr.o)
    0x000176f2   0x0000000e   Code   RO         1657    .text               mc_p.l(strlen.o)
    0x00017700   0x0000001c   Code   RO         1659    .text               mc_p.l(strcmp.o)
    0x0001771c   0x00000014   Code   RO         1661    .text               mc_p.l(memchr.o)
    0x00017730   0x0000001a   Code   RO         1663    .text               mc_p.l(memcmp.o)
    0x0001774a   0x00000012   Code   RO         1665    .text               mc_p.l(strcpy.o)
    0x0001775c   0x00000014   Code   RO         1930    .text               mc_p.l(uread4.o)
    0x00017770   0x0000001c   Code   RO         1932    .text               mc_p.l(uread8.o)
    0x0001778c   0x00000012   Code   RO         1934    .text               mc_p.l(uwrite4.o)
    0x0001779e   0x0000001e   Code   RO         1936    .text               mc_p.l(uwrite8.o)
    0x000177bc   0x0000003c   Code   RO         1938    .text               mc_p.l(__0sscanf.o)
    0x000177f8   0x0000014a   Code   RO         1940    .text               mc_p.l(_scanf_int.o)
    0x00017942   0x000000e4   Code   RO         1942    .text               mc_p.l(_scanf_str.o)
    0x00017a26   0x00000002   PAD
    0x00017a28   0x0000034c   Code   RO         1944    .text               mc_p.l(scanf_fp.o)
    0x00017d74   0x00000070   Code   RO         1948    .text               mc_p.l(strtol.o)
    0x00017de4   0x000000b2   Code   RO         1950    .text               mf_p.l(fadd.o)
    0x00017e96   0x0000007a   Code   RO         1952    .text               mf_p.l(fmul.o)
    0x00017f10   0x0000007c   Code   RO         1954    .text               mf_p.l(fdiv.o)
    0x00017f8c   0x00000164   Code   RO         1956    .text               mf_p.l(dadd.o)
    0x000180f0   0x000000d0   Code   RO         1958    .text               mf_p.l(dmul.o)
    0x000181c0   0x000000f0   Code   RO         1960    .text               mf_p.l(ddiv.o)
    0x000182b0   0x00000016   Code   RO         1962    .text               mf_p.l(fflti.o)
    0x000182c6   0x0000000e   Code   RO         1964    .text               mf_p.l(ffltui.o)
    0x000182d4   0x0000001c   Code   RO         1966    .text               mf_p.l(dfltui.o)
    0x000182f0   0x00000028   Code   RO         1968    .text               mf_p.l(ffixui.o)
    0x00018318   0x0000003c   Code   RO         1970    .text               mf_p.l(dfixui.o)
    0x00018354   0x00000028   Code   RO         1972    .text               mf_p.l(f2d.o)
    0x0001837c   0x00000028   Code   RO         1974    .text               mf_p.l(cdcmple.o)
    0x000183a4   0x00000028   Code   RO         1976    .text               mf_p.l(cdrcmple.o)
    0x000183cc   0x00000038   Code   RO         1978    .text               mf_p.l(d2f.o)
    0x00018404   0x00000014   Code   RO         1980    .text               mf_p.l(cfcmple.o)
    0x00018418   0x00000014   Code   RO         1982    .text               mf_p.l(cfrcmple.o)
    0x0001842c   0x00000060   Code   RO         2001    .text               mc_p.l(uldiv.o)
    0x0001848c   0x0000007a   Code   RO         2003    .text               mc_p.l(llmul.o)
    0x00018506   0x00000020   Code   RO         2005    .text               mc_p.l(llshl.o)
    0x00018526   0x00000022   Code   RO         2007    .text               mc_p.l(llushr.o)
    0x00018548   0x00000026   Code   RO         2009    .text               mc_p.l(llsshr.o)
    0x0001856e   0x0000001e   Code   RO         2018    .text               mc_p.l(_chval.o)
    0x0001858c   0x0000002c   Code   RO         2020    .text               mc_p.l(scanf_char.o)
    0x000185b8   0x00000044   Code   RO         2022    .text               mc_p.l(_sgetc.o)
    0x000185fc   0x000000a6   Code   RO         2024    .text               mc_p.l(_strtoul.o)
    0x000186a2   0x00000002   PAD
    0x000186a4   0x000000a4   Code   RO         2026    .text               mc_p.l(strtod.o)
    0x00018748   0x00000000   Code   RO         2028    .text               mc_p.l(iusefp.o)
    0x00018748   0x00000084   Code   RO         2029    .text               mf_p.l(fepilogue.o)
    0x000187cc   0x000000c0   Code   RO         2031    .text               mf_p.l(depilogue.o)
    0x0001888c   0x0000001c   Code   RO         2035    .text               mf_p.l(dfltul.o)
    0x000188a8   0x00000040   Code   RO         2037    .text               mf_p.l(dfixul.o)
    0x000188e8   0x00000024   Code   RO         2039    .text               mc_p.l(init.o)
    0x0001890c   0x00000334   Code   RO         2044    .text               mc_p.l(_scanf.o)
    0x00018c40   0x0000003a   Code   RO         2058    .text               mc_p.l(__dczerorl.o)
    0x00018c7a   0x00000002   PAD
    0x00018c7c   0x0000000c   Ven    RO         2060    Veneer$$Code        anon$$obj.o
    0x00018c88   0x00000118   Code   RO          887    i.USB_ReqGetDescriptor  usbcore.o
    0x00018da0   0x000000c4   Code   RO          875    i.USB_ReqGetStatus  usbcore.o
    0x00018e64   0x000000f0   Code   RO          881    i.USB_ReqSetClrFeature  usbcore.o
    0x00018f54   0x000001bc   Code   RO          893    i.USB_ReqSetConfiguration  usbcore.o
    0x00019110   0x00000140   Code   RO          899    i.USB_ReqSetInterface  usbcore.o
    0x00019250   0x00000028   Code   RO         1878    i.__0sprintf$8      mc_p.l(printf8.o)
    0x00019278   0x00000024   Code   RO         1908    i.__0vsprintf       mc_p.l(printfa.o)
    0x0001929c   0x0000002e   Code   RO         2033    i.__ARM_clz         mf_p.l(depilogue.o)
    0x000192ca   0x0000001c   Code   RO          317    i.__ARM_common_switch8  power_management.o
    0x000192e6   0x00000002   PAD
    0x000192e8   0x00000008   Code   RO         2011    i.__aeabi_errno_addr  mc_p.l(errno.o)
    0x000192f0   0x0000000e   Code   RO         2052    i.__scatterload_copy  mc_p.l(handlers.o)
    0x000192fe   0x00000002   Code   RO         2053    i.__scatterload_null  mc_p.l(handlers.o)
    0x00019300   0x0000000e   Code   RO         2054    i.__scatterload_zeroinit  mc_p.l(handlers.o)
    0x0001930e   0x00000002   PAD
    0x00019310   0x00000158   Code   RO         1909    i._fp_digits        mc_p.l(printfa.o)
    0x00019468   0x0000000e   Code   RO         1946    i._is_digit         mc_p.l(scanf_fp.o)
    0x00019476   0x00000002   PAD
    0x00019478   0x00000430   Code   RO         1883    i._printf_core      mc_p.l(printf8.o)
    0x000198a8   0x000006f8   Code   RO         1910    i._printf_core      mc_p.l(printfa.o)
    0x00019fa0   0x00000020   Code   RO         1884    i._printf_post_padding  mc_p.l(printf8.o)
    0x00019fc0   0x00000020   Code   RO         1911    i._printf_post_padding  mc_p.l(printfa.o)
    0x00019fe0   0x0000002c   Code   RO         1885    i._printf_pre_padding  mc_p.l(printf8.o)
    0x0001a00c   0x0000002c   Code   RO         1912    i._printf_pre_padding  mc_p.l(printfa.o)
    0x0001a038   0x0000000a   Code   RO         1887    i._sputc            mc_p.l(printf8.o)
    0x0001a042   0x0000000a   Code   RO         1914    i._sputc            mc_p.l(printfa.o)
    0x0001a04c   0x000000cc   Code   RO         1607    i.floor             m_ps.l(floor.o)
    0x0001a118   0x0000001c   Code   RO         1611    i.strtod            m_ps.l(strtod.o)
    0x0001a134   0x000000f8   Data   RO          419    .constdata          io_tasks.o
    0x0001a22c   0x000000ae   Data   RO          958    .constdata          usbdesc.o
    0x0001a2da   0x00000002   PAD
    0x0001a2dc   0x00000008   Data   RO          976    .constdata          usbuser.o
    0x0001a2e4   0x0000036e   Data   RO         1101    .constdata          at_command_parser.o
    0x0001a652   0x00000002   PAD
    0x0001a654   0x00000060   Data   RO         1159    .constdata          m_time.o
    0x0001a6b4   0x00000050   Data   RO         1300    .constdata          gps.o
    0x0001a704   0x00000080   Data   RO         1413    .constdata          ff.o
    0x0001a784   0x00000032   Data   RO         1558    .constdata          ambo_pedometer.o
    0x0001a7b6   0x00000081   Data   RO         1622    .constdata          mc_p.l(ctype_o.o)
    0x0001a837   0x00000001   PAD
    0x0001a838   0x00000004   Data   RO         1623    .constdata          mc_p.l(ctype_o.o)
    0x0001a83c   0x00000009   Data   RO         1068    .conststring        modem.o
    0x0001a845   0x00000006   Data   RO         1102    .conststring        at_command_parser.o
    0x0001a84b   0x00000001   PAD
    0x0001a84c   0x00000050   Data   RO         2050    Region$$Table       anon$$obj.o


    Execution Region RW_IRAM1 (Base: 0x1ffff000, Size: 0x000008fc, Max: 0x00001000, ABSOLUTE, COMPRESSED[0x00000030])

    Base Addr    Size         Type   Attr      Idx    E Section Name        Object

    0x1ffff000   0x00000011   Data   RW            5    .data               project_main.o
    0x1ffff011   0x00000001   Data   RW          300    .data               power_management.o
    0x1ffff012   0x00000018   Data   RW          381    .data               sos_tasks.o
    0x1ffff02a   0x0000001c   Data   RW          420    .data               io_tasks.o
    0x1ffff046   0x00000011   Data   RW          448    .data               upload_config_task.o
    0x1ffff057   0x00000001   PAD
    0x1ffff058   0x00000030   Data   RW          472    .data               gps_task.o
    0x1ffff088   0x00000005   Data   RW          622    .data               llwu.o
    0x1ffff08d   0x00000003   PAD
    0x1ffff090   0x00000007   Data   RW          932    .data               usbhw.o
    0x1ffff097   0x00000001   PAD
    0x1ffff098   0x00000089   Data   RW         1103    .data               at_command_parser.o
    0x1ffff121   0x00000001   Data   RW         1135    .data               system_config.o
    0x1ffff122   0x00000002   PAD
    0x1ffff124   0x0000000c   Data   RW         1160    .data               m_time.o
    0x1ffff130   0x00000001   Data   RW         1209    .data               string_parser.o
    0x1ffff131   0x00000003   PAD
    0x1ffff134   0x00000024   Data   RW         1301    .data               gps.o
    0x1ffff158   0x0000000c   Data   RW         1451    .data               audio.o
    0x1ffff164   0x00000030   Data   RW         1559    .data               ambo_pedometer.o
    0x1ffff194   0x0000000d   Data   RW         1580    .data               pedometer_task.o
    0x1ffff1a1   0x00000003   PAD
    0x1ffff1a4   0x00000004   Data   RW         2014    .data               mc_p.l(errno.o)
    0x1ffff1a8   0x0000011c   Zero   RW          380    .bss                sos_tasks.o
    0x1ffff2c4   0x0000019c   Zero   RW          418    .bss                io_tasks.o
    0x1ffff460   0x00000160   Zero   RW          717    .bss                uart.o
    0x1ffff5c0   0x00000040   Zero   RW          857    .bss                usbcore.o
    0x1ffff600   0x0000021c   Zero   RW         1100    .bss                at_command_parser.o
    0x1ffff81c   0x000000a8   Zero   RW         1224    .bss                db.o
    0x1ffff8c4   0x00000038   Zero   RW         1329    .bss                tick.o


    Execution Region RW_IRAM2 (Base: 0x20000000, Size: 0x0000296c, Max: 0x00003000, ABSOLUTE, COMPRESSED[0x00000048])

    Base Addr    Size         Type   Attr      Idx    E Section Name        Object

    0x20000000   0x00000020   Code   RO          836    .text               flash_ramfunc.o
    0x20000020   0x00000024   Data   RW          344    .data               gsm_gprs_tasks.o
    0x20000044   0x00000018   Data   RW          534    .data               sysinit.o
    0x2000005c   0x00000004   Data   RW          560    .data               system_mkl25z4.o
    0x20000060   0x00000024   Data   RW          858    .data               usbcore.o
    0x20000084   0x00000003   Data   RW         1018    .data               hiduser.o
    0x20000087   0x00000001   PAD
    0x20000088   0x00000004   Data   RW         1044    .data               sst25.o
    0x2000008c   0x00000040   Data   RW         1069    .data               modem.o
    0x200000cc   0x0000000c   Data   RW         1178    .data               sys_time.o
    0x200000d8   0x00000020   Data   RW         1225    .data               db.o
    0x200000f8   0x0000000b   Data   RW         1252    .data               tracker.o
    0x20000103   0x00000005   PAD
    0x20000108   0x00000058   Data   RW         1330    .data               tick.o
    0x20000160   0x00000048   Data   RW         1365    .data               dbg_cfg_app.o
    0x200001a8   0x00000006   Data   RW         1414    .data               ff.o
    0x200001ae   0x00000002   PAD
    0x200001b0   0x00000225   Data   RW         1478    .data               dtmf_app.o
    0x200003d5   0x00000003   PAD
    0x200003d8   0x00000018   Zero   RW            4    .bss                project_main.o
    0x200003f0   0x00000728   Zero   RW          254    .bss                project_common.o
    0x20000b18   0x0000046c   Zero   RW          343    .bss                gsm_gprs_tasks.o
    0x20000f84   0x0000000c   Zero   RW          447    .bss                upload_config_task.o
    0x20000f90   0x00000070   PAD
    0x20001000   0x00000360   Zero   RW          931    .bss                usbhw.o
    0x20001360   0x00000160   Zero   RW         1017    .bss                hiduser.o
    0x200014c0   0x000001b8   Zero   RW         1067    .bss                modem.o
    0x20001678   0x000004e6   Zero   RW         1134    .bss                system_config.o
    0x20001b5e   0x0000017f   Zero   RW         1251    .bss                tracker.o
    0x20001cdd   0x00000003   PAD
    0x20001ce0   0x00000340   Zero   RW         1299    .bss                gps.o
    0x20002020   0x00000278   Zero   RW         1364    .bss                dbg_cfg_app.o
    0x20002298   0x00000374   Zero   RW         1450    .bss                audio.o
    0x2000260c   0x00000030   Zero   RW         1477    .bss                dtmf_app.o
    0x2000263c   0x00000100   Zero   RW         1510    .bss                dtmf.o
    0x2000273c   0x00000220   Zero   RW         1557    .bss                ambo_pedometer.o
    0x2000295c   0x00000010   Zero   RW         1579    .bss                pedometer_task.o


==============================================================================

Image component sizes


      Code (inc. data)   RO Data    RW Data    ZI Data      Debug   Object Name

      1484        192         50         48        544       4243   ambo_pedometer.o
     12852       3606        884        137        540      15943   at_command_parser.o
      2300        136          0         12        884      11415   audio.o
      2924        114          0         32        168       8481   db.o
      3376        250          0         72        632      15491   dbg_cfg_app.o
       146          0          0          0          0       2310   diskio.o
       976         78          0          0        256       4474   dtmf.o
       528         48          0        549         48     102133   dtmf_app.o
      3124         48        128          6          0      12119   ff.o
       416         10          0          0          0       1833   flash_ftfa.o
       148          0          0          0          0       2114   flash_mem.o
        32          6          0          0          0        424   flash_ramfunc.o
      4304        474          0          0          0       6569   gprs_cmd_ctrl.o
      3876        402         80         36        832      13991   gps.o
      1088        120          0         48          0       3142   gps_task.o
      8132       1276          0         36       1132      16857   gsm_gprs_tasks.o
       268         30          0          3        352       2858   hiduser.o
      6704       1138        248         28        412      14894   io_tasks.o
       888         12          0          5          0       1723   llwu.o
      1560         46         96         12          0       4015   m_time.o
      7848        376          0          0          0      15124   mcg.o
      3096        524          9         64        440      11884   modem.o
        96         22          0          0          0        644   nmi_isr_handler.o
       716         34          0         13         16       2767   pedometer_task.o
      2216        150          0          1          0      96124   power_management.o
         0          0          0          0       1832       2935   project_common.o
      2900        384          0         17         24     188046   project_main.o
         2          0          0          0          0        389   rcm.o
       152          0          0          0          0       1763   ringbuf.o
       856         16          0          0          0       2520   smc.o
      3520        432          0         24        284       9293   sos_tasks.o
       248         36          0          0          0        835   spi.o
       708         12          0          4          0       3532   sst25.o
       380         52          0          0          0        904   start.o
        44         24       1024          0          0        812   startup_mkl25z4.o
       344          6          0          1          0       2010   string_parser.o
       600          6          0         12          0       3212   sys_time.o
       260         48          0         24          0       7018   sysinit.o
      2916        268          0          1       1254       8754   system_config.o
       532         62          0          4          0       1197   system_mkl25z4.o
      2992        328          0         88         56      15761   tick.o
      1900        194          0         11        383       4815   tracker.o
      1108         68          0          0        352      10640   uart.o
      3176        578          0         17         12       4621   upload_config_task.o
      2440        236          0         36         64       9215   usbcore.o
         0          0        174          0          0        945   usbdesc.o
      1664         72          0          7        864     104568   usbhw.o
        68          4          8          0          0       1854   usbuser.o
       324         10          0          0          0       1743   xl362_io.o

    ----------------------------------------------------------------------
     96250      11932       2786       1372      11496     758954   Object Totals
        12          4         80          0          0          0   (incl. Generated)
         6          0          5         24        115          0   (incl. Padding)

    ----------------------------------------------------------------------

      Code (inc. data)   RO Data    RW Data    ZI Data      Debug   Library Member Name

       204         22          0          0          0         76   floor.o
        28          0          0          0          0         72   strtod.o
        60         10          0          0          0         84   __0sscanf.o
        58          0          0          0          0          0   __dczerorl.o
        30          0          0          0          0         60   _chval.o
       820         14          0          0          0         84   _scanf.o
       330          0          0          0          0         84   _scanf_int.o
       228          0          0          0          0         84   _scanf_str.o
        68          0          0          0          0         76   _sgetc.o
       166          0          0          0          0         84   _strtoul.o
         8          4        133          0          0         60   ctype_o.o
         0          0          0          0          0          0   entry.o
         0          0          0          0          0          0   entry10a.o
         0          0          0          0          0          0   entry11a.o
         8          4          0          0          0          0   entry2.o
         4          0          0          0          0          0   entry5.o
         0          0          0          0          0          0   entry7b.o
         0          0          0          0          0          0   entry8b.o
         8          4          0          0          0          0   entry9a.o
         8          4          0          4          0         60   errno.o
        30          0          0          0          0          0   handlers.o
        40          0          0          0          0         72   idiv.o
        36          8          0          0          0         68   init.o
        18          0          0          0          0         68   isspace_o.o
         0          0          0          0          0          0   iusefp.o
       122          0          0          0          0         84   llmul.o
        32          0          0          0          0         68   llshl.o
        38          0          0          0          0         68   llsshr.o
        34          0          0          0          0         68   llushr.o
        20          0          0          0          0         60   memchr.o
        26          0          0          0          0         72   memcmp.o
        36          0          0          0          0         60   memcpya.o
        36          0          0          0          0        100   memseta.o
      1198         50          0          0          0        384   printf8.o
      2250        100          0          0          0        460   printfa.o
        44          8          0          0          0         84   scanf_char.o
       858         12          0          0          0        184   scanf_fp.o
        24          0          0          0          0         60   strcat.o
        28          0          0          0          0         68   strcmp.o
        18          0          0          0          0         60   strcpy.o
        14          0          0          0          0         60   strlen.o
        40          0          0          0          0         72   strstr.o
       164         18          0          0          0        120   strtod.o
       112          4          0          0          0         76   strtol.o
        44          0          0          0          0         72   uidiv.o
        96          0          0          0          0         84   uldiv.o
        20          0          0          0          0         60   uread4.o
        28          0          0          0          0         68   uread8.o
        18          0          0          0          0         60   uwrite4.o
        30          0          0          0          0         72   uwrite8.o
        40          2          0          0          0         68   cdcmple.o
        40          2          0          0          0         68   cdrcmple.o
        20          0          0          0          0         68   cfcmple.o
        20          0          0          0          0         68   cfrcmple.o
        56          0          0          0          0         68   d2f.o
       356          6          0          0          0        140   dadd.o
       240          6          0          0          0         84   ddiv.o
       238          0          0          0          0        216   depilogue.o
        60         10          0          0          0         68   dfixui.o
        64         10          0          0          0         68   dfixul.o
        28          4          0          0          0         68   dfltui.o
        28          6          0          0          0         68   dfltul.o
       208          6          0          0          0         88   dmul.o
        40          0          0          0          0         60   f2d.o
       178          0          0          0          0        108   fadd.o
       124          0          0          0          0         72   fdiv.o
       132          0          0          0          0        144   fepilogue.o
        40          0          0          0          0         60   ffixui.o
        22          0          0          0          0         68   fflti.o
        14          0          0          0          0         68   ffltui.o
       122          0          0          0          0         72   fmul.o

    ----------------------------------------------------------------------
      9562        314        134          4          0       5448   Library Totals
        10          0          1          0          0          0   (incl. Padding)

    ----------------------------------------------------------------------

      Code (inc. data)   RO Data    RW Data    ZI Data      Debug   Library Name

       232         22          0          0          0        148   m_ps.l
      7250        240        133          4          0       3508   mc_p.l
      2070         52          0          0          0       1792   mf_p.l

    ----------------------------------------------------------------------
      9562        314        134          4          0       5448   Library Totals

    ----------------------------------------------------------------------

==============================================================================


      Code (inc. data)   RO Data    RW Data    ZI Data      Debug   

    105812      12246       2920       1376      11496     756970   Grand Totals
    105812      12246       2920        120      11496     756970   ELF Image Totals (compressed)
    105812      12246       2920        120          0          0   ROM Totals

==============================================================================

    Total RO  Size (Code + RO Data)               108732 ( 106.18kB)
    Total RW  Size (RW Data + ZI Data)             12872 (  12.57kB)
    Total ROM Size (Code + RO Data + RW Data)     108852 ( 106.30kB)

==============================================================================

